Archive member included because of file (symbol)

c:/chibistudio/tools/gnu tools arm embedded/4.9 2015q3/bin/../lib/gcc/arm-none-eabi/4.9.3/../../../../arm-none-eabi/lib/armv7e-m\libg.a(lib_a-atoi.o)
                              build/obj/main.o (symbol from plugin) (atoi)
c:/chibistudio/tools/gnu tools arm embedded/4.9 2015q3/bin/../lib/gcc/arm-none-eabi/4.9.3/../../../../arm-none-eabi/lib/armv7e-m\libg.a(lib_a-strtol.o)
                              c:/chibistudio/tools/gnu tools arm embedded/4.9 2015q3/bin/../lib/gcc/arm-none-eabi/4.9.3/../../../../arm-none-eabi/lib/armv7e-m\libg.a(lib_a-atoi.o) (_strtol_r)
c:/chibistudio/tools/gnu tools arm embedded/4.9 2015q3/bin/../lib/gcc/arm-none-eabi/4.9.3/../../../../arm-none-eabi/lib/armv7e-m\libg.a(lib_a-ctype_.o)
                              c:/chibistudio/tools/gnu tools arm embedded/4.9 2015q3/bin/../lib/gcc/arm-none-eabi/4.9.3/../../../../arm-none-eabi/lib/armv7e-m\libg.a(lib_a-strtol.o) (__ctype_ptr__)
c:/chibistudio/tools/gnu tools arm embedded/4.9 2015q3/bin/../lib/gcc/arm-none-eabi/4.9.3/../../../../arm-none-eabi/lib/armv7e-m\libg.a(lib_a-impure.o)
                              c:/chibistudio/tools/gnu tools arm embedded/4.9 2015q3/bin/../lib/gcc/arm-none-eabi/4.9.3/../../../../arm-none-eabi/lib/armv7e-m\libg.a(lib_a-strtol.o) (_impure_ptr)
c:/chibistudio/tools/gnu tools arm embedded/4.9 2015q3/bin/../lib/gcc/arm-none-eabi/4.9.3/../../../../arm-none-eabi/lib/armv7e-m\libg.a(lib_a-memcpy.o)
                              C:\Users\Ciccio\AppData\Local\Temp\ccXVDL4Z.ltrans0.ltrans.o (memcpy)

Discarded input sections

 .data          0x00000000        0x0 build/obj/crt0_v7m.o
 .bss           0x00000000        0x0 build/obj/crt0_v7m.o
 .data          0x00000000        0x0 build/obj/chcoreasm_v7m.o
 .bss           0x00000000        0x0 build/obj/chcoreasm_v7m.o
 .text          0x00000000        0x0 build/obj/crt1.o (symbol from plugin)
 .text          0x00000000        0x0 C:\Users\Ciccio\AppData\Local\Temp\ccXVDL4Z.ltrans0.ltrans.o
 .data          0x00000000        0x0 C:\Users\Ciccio\AppData\Local\Temp\ccXVDL4Z.ltrans0.ltrans.o
 .bss           0x00000000        0x0 C:\Users\Ciccio\AppData\Local\Temp\ccXVDL4Z.ltrans0.ltrans.o
 .rodata.__func__.6506.lto_priv.410
                0x00000000        0xe C:\Users\Ciccio\AppData\Local\Temp\ccXVDL4Z.ltrans0.ltrans.o
 .rodata.__func__.6524.lto_priv.407
                0x00000000        0xd C:\Users\Ciccio\AppData\Local\Temp\ccXVDL4Z.ltrans0.ltrans.o
 .rodata.__func__.7048.lto_priv.329
                0x00000000        0xb C:\Users\Ciccio\AppData\Local\Temp\ccXVDL4Z.ltrans0.ltrans.o
 .rodata.__func__.7353.lto_priv.311
                0x00000000        0xe C:\Users\Ciccio\AppData\Local\Temp\ccXVDL4Z.ltrans0.ltrans.o
 .rodata.__func__.7364.lto_priv.310
                0x00000000       0x13 C:\Users\Ciccio\AppData\Local\Temp\ccXVDL4Z.ltrans0.ltrans.o
 .rodata.__func__.6051.lto_priv.316
                0x00000000        0xc C:\Users\Ciccio\AppData\Local\Temp\ccXVDL4Z.ltrans0.ltrans.o
 .rodata.__func__.7378.lto_priv.309
                0x00000000       0x19 C:\Users\Ciccio\AppData\Local\Temp\ccXVDL4Z.ltrans0.ltrans.o
 .rodata.__func__.7385.lto_priv.308
                0x00000000       0x17 C:\Users\Ciccio\AppData\Local\Temp\ccXVDL4Z.ltrans0.ltrans.o
 .rodata.__func__.7411.lto_priv.307
                0x00000000        0xe C:\Users\Ciccio\AppData\Local\Temp\ccXVDL4Z.ltrans0.ltrans.o
 .rodata.__func__.7422.lto_priv.306
                0x00000000       0x17 C:\Users\Ciccio\AppData\Local\Temp\ccXVDL4Z.ltrans0.ltrans.o
 .rodata.__func__.7436.lto_priv.305
                0x00000000       0x1a C:\Users\Ciccio\AppData\Local\Temp\ccXVDL4Z.ltrans0.ltrans.o
 .rodata.__func__.7445.lto_priv.304
                0x00000000       0x13 C:\Users\Ciccio\AppData\Local\Temp\ccXVDL4Z.ltrans0.ltrans.o
 .rodata.__func__.7045.lto_priv.302
                0x00000000        0x8 C:\Users\Ciccio\AppData\Local\Temp\ccXVDL4Z.ltrans0.ltrans.o
 .rodata.__func__.7049.lto_priv.301
                0x00000000        0xd C:\Users\Ciccio\AppData\Local\Temp\ccXVDL4Z.ltrans0.ltrans.o
 .rodata.__func__.7069.lto_priv.299
                0x00000000       0x18 C:\Users\Ciccio\AppData\Local\Temp\ccXVDL4Z.ltrans0.ltrans.o
 .rodata.__func__.7034.lto_priv.296
                0x00000000        0xb C:\Users\Ciccio\AppData\Local\Temp\ccXVDL4Z.ltrans0.ltrans.o
 .rodata.__func__.7039.lto_priv.295
                0x00000000        0xc C:\Users\Ciccio\AppData\Local\Temp\ccXVDL4Z.ltrans0.ltrans.o
 .rodata.__func__.7044.lto_priv.110
                0x00000000        0xe C:\Users\Ciccio\AppData\Local\Temp\ccXVDL4Z.ltrans0.ltrans.o
 .rodata.__func__.7086.lto_priv.283
                0x00000000        0x7 C:\Users\Ciccio\AppData\Local\Temp\ccXVDL4Z.ltrans0.ltrans.o
 .rodata.__func__.7096.lto_priv.281
                0x00000000        0xf C:\Users\Ciccio\AppData\Local\Temp\ccXVDL4Z.ltrans0.ltrans.o
 .rodata.__func__.7042.lto_priv.280
                0x00000000       0x1d C:\Users\Ciccio\AppData\Local\Temp\ccXVDL4Z.ltrans0.ltrans.o
 .data.SystemCoreClock
                0x00000000        0x4 C:\Users\Ciccio\AppData\Local\Temp\ccXVDL4Z.ltrans0.ltrans.o
 .rodata.__func__.7122.lto_priv.276
                0x00000000       0x11 C:\Users\Ciccio\AppData\Local\Temp\ccXVDL4Z.ltrans0.ltrans.o
 .text.writes   0x00000000       0x54 C:\Users\Ciccio\AppData\Local\Temp\ccXVDL4Z.ltrans0.ltrans.o
 .text.reads    0x00000000       0x54 C:\Users\Ciccio\AppData\Local\Temp\ccXVDL4Z.ltrans0.ltrans.o
 .text.put.lto_priv.5
                0x00000000       0x44 C:\Users\Ciccio\AppData\Local\Temp\ccXVDL4Z.ltrans0.ltrans.o
 .text.get.lto_priv.3
                0x00000000       0x40 C:\Users\Ciccio\AppData\Local\Temp\ccXVDL4Z.ltrans0.ltrans.o
 .rodata.vmt.lto_priv.1
                0x00000000       0x10 C:\Users\Ciccio\AppData\Local\Temp\ccXVDL4Z.ltrans0.ltrans.o
 .text.msObjectInit
                0x00000000       0x30 C:\Users\Ciccio\AppData\Local\Temp\ccXVDL4Z.ltrans0.ltrans.o
 .text.chsnprintf
                0x00000000       0x60 C:\Users\Ciccio\AppData\Local\Temp\ccXVDL4Z.ltrans0.ltrans.o
 .text.getPWM   0x00000000       0xa4 C:\Users\Ciccio\AppData\Local\Temp\ccXVDL4Z.ltrans0.ltrans.o
 .text          0x00000000        0x0 C:\Users\Ciccio\AppData\Local\Temp\ccXVDL4Z.ltrans1.ltrans.o
 .data          0x00000000        0x0 C:\Users\Ciccio\AppData\Local\Temp\ccXVDL4Z.ltrans1.ltrans.o
 .bss           0x00000000        0x0 C:\Users\Ciccio\AppData\Local\Temp\ccXVDL4Z.ltrans1.ltrans.o
 .text          0x00000000        0x0 C:\Users\Ciccio\AppData\Local\Temp\ccXVDL4Z.ltrans2.ltrans.o
 .data          0x00000000        0x0 C:\Users\Ciccio\AppData\Local\Temp\ccXVDL4Z.ltrans2.ltrans.o
 .bss           0x00000000        0x0 C:\Users\Ciccio\AppData\Local\Temp\ccXVDL4Z.ltrans2.ltrans.o
 .text          0x00000000        0x0 C:\Users\Ciccio\AppData\Local\Temp\ccXVDL4Z.ltrans3.ltrans.o
 .data          0x00000000        0x0 C:\Users\Ciccio\AppData\Local\Temp\ccXVDL4Z.ltrans3.ltrans.o
 .bss           0x00000000        0x0 C:\Users\Ciccio\AppData\Local\Temp\ccXVDL4Z.ltrans3.ltrans.o
 .text          0x00000000        0x0 C:\Users\Ciccio\AppData\Local\Temp\ccXVDL4Z.ltrans4.ltrans.o
 .data          0x00000000        0x0 C:\Users\Ciccio\AppData\Local\Temp\ccXVDL4Z.ltrans4.ltrans.o
 .bss           0x00000000        0x0 C:\Users\Ciccio\AppData\Local\Temp\ccXVDL4Z.ltrans4.ltrans.o
 .text          0x00000000        0x0 C:\Users\Ciccio\AppData\Local\Temp\ccXVDL4Z.ltrans5.ltrans.o
 .data          0x00000000        0x0 C:\Users\Ciccio\AppData\Local\Temp\ccXVDL4Z.ltrans5.ltrans.o
 .bss           0x00000000        0x0 C:\Users\Ciccio\AppData\Local\Temp\ccXVDL4Z.ltrans5.ltrans.o
 .text.sd_lld_stop
                0x00000000       0x40 C:\Users\Ciccio\AppData\Local\Temp\ccXVDL4Z.ltrans5.ltrans.o
 .text          0x00000000        0x0 C:\Users\Ciccio\AppData\Local\Temp\ccXVDL4Z.ltrans6.ltrans.o
 .data          0x00000000        0x0 C:\Users\Ciccio\AppData\Local\Temp\ccXVDL4Z.ltrans6.ltrans.o
 .bss           0x00000000        0x0 C:\Users\Ciccio\AppData\Local\Temp\ccXVDL4Z.ltrans6.ltrans.o
 .text.i2c_lld_abort_operation
                0x00000000       0x98 C:\Users\Ciccio\AppData\Local\Temp\ccXVDL4Z.ltrans6.ltrans.o
 .text.i2c_lld_stop
                0x00000000       0xa0 C:\Users\Ciccio\AppData\Local\Temp\ccXVDL4Z.ltrans6.ltrans.o
 .text.i2c_lld_master_receive_timeout
                0x00000000       0xd4 C:\Users\Ciccio\AppData\Local\Temp\ccXVDL4Z.ltrans6.ltrans.o
 .text.usart_deinit.lto_priv.241
                0x00000000       0x1c C:\Users\Ciccio\AppData\Local\Temp\ccXVDL4Z.ltrans6.ltrans.o
 .text          0x00000000        0x0 C:\Users\Ciccio\AppData\Local\Temp\ccXVDL4Z.ltrans7.ltrans.o
 .data          0x00000000        0x0 C:\Users\Ciccio\AppData\Local\Temp\ccXVDL4Z.ltrans7.ltrans.o
 .bss           0x00000000        0x0 C:\Users\Ciccio\AppData\Local\Temp\ccXVDL4Z.ltrans7.ltrans.o
 .text.obqTryFlushI
                0x00000000       0x94 C:\Users\Ciccio\AppData\Local\Temp\ccXVDL4Z.ltrans7.ltrans.o
 .text.obqFlush
                0x00000000       0x3c C:\Users\Ciccio\AppData\Local\Temp\ccXVDL4Z.ltrans7.ltrans.o
 .text.i2cStop  0x00000000       0x50 C:\Users\Ciccio\AppData\Local\Temp\ccXVDL4Z.ltrans7.ltrans.o
 .text.i2cGetErrors
                0x00000000       0x24 C:\Users\Ciccio\AppData\Local\Temp\ccXVDL4Z.ltrans7.ltrans.o
 .text.i2cMasterReceiveTimeout
                0x00000000       0x94 C:\Users\Ciccio\AppData\Local\Temp\ccXVDL4Z.ltrans7.ltrans.o
 .text.palReadBus
                0x00000000       0x3c C:\Users\Ciccio\AppData\Local\Temp\ccXVDL4Z.ltrans7.ltrans.o
 .text.palWriteBus
                0x00000000       0x50 C:\Users\Ciccio\AppData\Local\Temp\ccXVDL4Z.ltrans7.ltrans.o
 .text.palSetBusMode
                0x00000000       0x40 C:\Users\Ciccio\AppData\Local\Temp\ccXVDL4Z.ltrans7.ltrans.o
 .text.chOQIsFullI
                0x00000000       0x20 C:\Users\Ciccio\AppData\Local\Temp\ccXVDL4Z.ltrans7.ltrans.o
 .text.osalOsRescheduleS
                0x00000000        0x8 C:\Users\Ciccio\AppData\Local\Temp\ccXVDL4Z.ltrans7.ltrans.o
 .text.sdStop   0x00000000       0x60 C:\Users\Ciccio\AppData\Local\Temp\ccXVDL4Z.ltrans7.ltrans.o
 .text.sdRequestDataI
                0x00000000       0x44 C:\Users\Ciccio\AppData\Local\Temp\ccXVDL4Z.ltrans7.ltrans.o
 .text.sdPutWouldBlock
                0x00000000       0x2c C:\Users\Ciccio\AppData\Local\Temp\ccXVDL4Z.ltrans7.ltrans.o
 .text.sdGetWouldBlock
                0x00000000       0x2c C:\Users\Ciccio\AppData\Local\Temp\ccXVDL4Z.ltrans7.ltrans.o
 .text.nvicDisableVector
                0x00000000       0x34 C:\Users\Ciccio\AppData\Local\Temp\ccXVDL4Z.ltrans7.ltrans.o
 .text.nvicSetSystemHandlerPriority
                0x00000000       0x38 C:\Users\Ciccio\AppData\Local\Temp\ccXVDL4Z.ltrans7.ltrans.o
 .text.nvicClearPending
                0x00000000       0x24 C:\Users\Ciccio\AppData\Local\Temp\ccXVDL4Z.ltrans7.ltrans.o
 .text.dmaStreamRelease
                0x00000000       0x90 C:\Users\Ciccio\AppData\Local\Temp\ccXVDL4Z.ltrans7.ltrans.o
 .text          0x00000000        0x0 C:\Users\Ciccio\AppData\Local\Temp\ccXVDL4Z.ltrans8.ltrans.o
 .data          0x00000000        0x0 C:\Users\Ciccio\AppData\Local\Temp\ccXVDL4Z.ltrans8.ltrans.o
 .bss           0x00000000        0x0 C:\Users\Ciccio\AppData\Local\Temp\ccXVDL4Z.ltrans8.ltrans.o
 .text.st_lld_get_alarm
                0x00000000        0xc C:\Users\Ciccio\AppData\Local\Temp\ccXVDL4Z.ltrans8.ltrans.o
 .text.stGetAlarm
                0x00000000       0x28 C:\Users\Ciccio\AppData\Local\Temp\ccXVDL4Z.ltrans8.ltrans.o
 .text.port_lock.lto_priv.328
                0x00000000       0x10 C:\Users\Ciccio\AppData\Local\Temp\ccXVDL4Z.ltrans8.ltrans.o
 .text.port_unlock.lto_priv.324
                0x00000000       0x10 C:\Users\Ciccio\AppData\Local\Temp\ccXVDL4Z.ltrans8.ltrans.o
 .text.st_lld_get_counter
                0x00000000        0xc C:\Users\Ciccio\AppData\Local\Temp\ccXVDL4Z.ltrans8.ltrans.o
 .text.port_timer_get_time
                0x00000000        0xc C:\Users\Ciccio\AppData\Local\Temp\ccXVDL4Z.ltrans8.ltrans.o
 .text.queue_init
                0x00000000       0x14 C:\Users\Ciccio\AppData\Local\Temp\ccXVDL4Z.ltrans8.ltrans.o
 .text.chSysLock.lto_priv.320
                0x00000000       0x10 C:\Users\Ciccio\AppData\Local\Temp\ccXVDL4Z.ltrans8.ltrans.o
 .text.chSysUnlock.lto_priv.315
                0x00000000       0x38 C:\Users\Ciccio\AppData\Local\Temp\ccXVDL4Z.ltrans8.ltrans.o
 .text.chVTGetSystemTimeX
                0x00000000        0xc C:\Users\Ciccio\AppData\Local\Temp\ccXVDL4Z.ltrans8.ltrans.o
 .text.chThdQueueObjectInit
                0x00000000       0x14 C:\Users\Ciccio\AppData\Local\Temp\ccXVDL4Z.ltrans8.ltrans.o
 .text.osalSysLock.lto_priv.288
                0x00000000        0x8 C:\Users\Ciccio\AppData\Local\Temp\ccXVDL4Z.ltrans8.ltrans.o
 .text.osalSysUnlock.lto_priv.285
                0x00000000        0x8 C:\Users\Ciccio\AppData\Local\Temp\ccXVDL4Z.ltrans8.ltrans.o
 .text.osalOsGetSystemTimeX
                0x00000000        0xc C:\Users\Ciccio\AppData\Local\Temp\ccXVDL4Z.ltrans8.ltrans.o
 .text.osalThreadQueueObjectInit
                0x00000000       0x14 C:\Users\Ciccio\AppData\Local\Temp\ccXVDL4Z.ltrans8.ltrans.o
 .text.osalThreadEnqueueTimeoutS
                0x00000000       0x1c C:\Users\Ciccio\AppData\Local\Temp\ccXVDL4Z.ltrans8.ltrans.o
 .text.osalThreadDequeueNextI
                0x00000000       0x18 C:\Users\Ciccio\AppData\Local\Temp\ccXVDL4Z.ltrans8.ltrans.o
 .text.osalThreadDequeueAllI
                0x00000000       0x18 C:\Users\Ciccio\AppData\Local\Temp\ccXVDL4Z.ltrans8.ltrans.o
 .text.ibqObjectInit
                0x00000000       0x88 C:\Users\Ciccio\AppData\Local\Temp\ccXVDL4Z.ltrans8.ltrans.o
 .text.ibqResetI
                0x00000000       0x40 C:\Users\Ciccio\AppData\Local\Temp\ccXVDL4Z.ltrans8.ltrans.o
 .text.ibqGetEmptyBufferI
                0x00000000       0x40 C:\Users\Ciccio\AppData\Local\Temp\ccXVDL4Z.ltrans8.ltrans.o
 .text.ibqPostFullBufferI
                0x00000000       0x98 C:\Users\Ciccio\AppData\Local\Temp\ccXVDL4Z.ltrans8.ltrans.o
 .text.ibqGetFullBufferTimeout
                0x00000000       0x24 C:\Users\Ciccio\AppData\Local\Temp\ccXVDL4Z.ltrans8.ltrans.o
 .text.ibqGetFullBufferTimeoutS
                0x00000000       0x64 C:\Users\Ciccio\AppData\Local\Temp\ccXVDL4Z.ltrans8.ltrans.o
 .text.ibqReleaseEmptyBuffer
                0x00000000       0x1c C:\Users\Ciccio\AppData\Local\Temp\ccXVDL4Z.ltrans8.ltrans.o
 .text.ibqReleaseEmptyBufferS
                0x00000000       0x64 C:\Users\Ciccio\AppData\Local\Temp\ccXVDL4Z.ltrans8.ltrans.o
 .text.ibqGetTimeout
                0x00000000       0x60 C:\Users\Ciccio\AppData\Local\Temp\ccXVDL4Z.ltrans8.ltrans.o
 .text.ibqReadTimeout
                0x00000000      0x120 C:\Users\Ciccio\AppData\Local\Temp\ccXVDL4Z.ltrans8.ltrans.o
 .text.obqObjectInit
                0x00000000       0x88 C:\Users\Ciccio\AppData\Local\Temp\ccXVDL4Z.ltrans8.ltrans.o
 .text.obqResetI
                0x00000000       0x40 C:\Users\Ciccio\AppData\Local\Temp\ccXVDL4Z.ltrans8.ltrans.o
 .text.obqGetFullBufferI
                0x00000000       0x4c C:\Users\Ciccio\AppData\Local\Temp\ccXVDL4Z.ltrans8.ltrans.o
 .text.obqReleaseEmptyBufferI
                0x00000000       0x74 C:\Users\Ciccio\AppData\Local\Temp\ccXVDL4Z.ltrans8.ltrans.o
 .text.obqGetEmptyBufferTimeout
                0x00000000       0x24 C:\Users\Ciccio\AppData\Local\Temp\ccXVDL4Z.ltrans8.ltrans.o
 .text.obqGetEmptyBufferTimeoutS
                0x00000000       0x60 C:\Users\Ciccio\AppData\Local\Temp\ccXVDL4Z.ltrans8.ltrans.o
 .text.obqPostFullBuffer
                0x00000000       0x20 C:\Users\Ciccio\AppData\Local\Temp\ccXVDL4Z.ltrans8.ltrans.o
 .text.obqPostFullBufferS
                0x00000000       0x88 C:\Users\Ciccio\AppData\Local\Temp\ccXVDL4Z.ltrans8.ltrans.o
 .text.obqPutTimeout
                0x00000000       0x70 C:\Users\Ciccio\AppData\Local\Temp\ccXVDL4Z.ltrans8.ltrans.o
 .text.obqWriteTimeout
                0x00000000      0x128 C:\Users\Ciccio\AppData\Local\Temp\ccXVDL4Z.ltrans8.ltrans.o
 .text          0x00000000        0x0 C:\Users\Ciccio\AppData\Local\Temp\ccXVDL4Z.ltrans9.ltrans.o
 .data          0x00000000        0x0 C:\Users\Ciccio\AppData\Local\Temp\ccXVDL4Z.ltrans9.ltrans.o
 .bss           0x00000000        0x0 C:\Users\Ciccio\AppData\Local\Temp\ccXVDL4Z.ltrans9.ltrans.o
 .text.chEvtGetAndClearFlags
                0x00000000       0x24 C:\Users\Ciccio\AppData\Local\Temp\ccXVDL4Z.ltrans9.ltrans.o
 .text.chEvtGetAndClearFlagsI
                0x00000000       0x18 C:\Users\Ciccio\AppData\Local\Temp\ccXVDL4Z.ltrans9.ltrans.o
 .text          0x00000000        0x0 C:\Users\Ciccio\AppData\Local\Temp\ccXVDL4Z.ltrans10.ltrans.o
 .data          0x00000000        0x0 C:\Users\Ciccio\AppData\Local\Temp\ccXVDL4Z.ltrans10.ltrans.o
 .bss           0x00000000        0x0 C:\Users\Ciccio\AppData\Local\Temp\ccXVDL4Z.ltrans10.ltrans.o
 .text          0x00000000        0x0 C:\Users\Ciccio\AppData\Local\Temp\ccXVDL4Z.ltrans11.ltrans.o
 .data          0x00000000        0x0 C:\Users\Ciccio\AppData\Local\Temp\ccXVDL4Z.ltrans11.ltrans.o
 .bss           0x00000000        0x0 C:\Users\Ciccio\AppData\Local\Temp\ccXVDL4Z.ltrans11.ltrans.o
 .text.port_rt_get_counter_value
                0x00000000        0xc C:\Users\Ciccio\AppData\Local\Temp\ccXVDL4Z.ltrans11.ltrans.o
 .text.chSysIsCounterWithinX
                0x00000000       0x24 C:\Users\Ciccio\AppData\Local\Temp\ccXVDL4Z.ltrans11.ltrans.o
 .text.chSysPolledDelayX
                0x00000000       0x30 C:\Users\Ciccio\AppData\Local\Temp\ccXVDL4Z.ltrans11.ltrans.o
 .text.chVTIsTimeWithinX
                0x00000000       0x24 C:\Users\Ciccio\AppData\Local\Temp\ccXVDL4Z.ltrans11.ltrans.o
 .text.chThdSleepUntilWindowed
                0x00000000       0x3c C:\Users\Ciccio\AppData\Local\Temp\ccXVDL4Z.ltrans11.ltrans.o
 .text.chThdSuspendS
                0x00000000       0x40 C:\Users\Ciccio\AppData\Local\Temp\ccXVDL4Z.ltrans11.ltrans.o
 .text.chThdResumeS
                0x00000000       0x40 C:\Users\Ciccio\AppData\Local\Temp\ccXVDL4Z.ltrans11.ltrans.o
 .text.chThdResume
                0x00000000       0x20 C:\Users\Ciccio\AppData\Local\Temp\ccXVDL4Z.ltrans11.ltrans.o
 .text          0x00000000      0x134 c:/chibistudio/tools/gnu tools arm embedded/4.9 2015q3/bin/../lib/gcc/arm-none-eabi/4.9.3/../../../../arm-none-eabi/lib/armv7e-m\libg.a(lib_a-memcpy.o)
 .data          0x00000000        0x0 c:/chibistudio/tools/gnu tools arm embedded/4.9 2015q3/bin/../lib/gcc/arm-none-eabi/4.9.3/../../../../arm-none-eabi/lib/armv7e-m\libg.a(lib_a-memcpy.o)
 .bss           0x00000000        0x0 c:/chibistudio/tools/gnu tools arm embedded/4.9 2015q3/bin/../lib/gcc/arm-none-eabi/4.9.3/../../../../arm-none-eabi/lib/armv7e-m\libg.a(lib_a-memcpy.o)
 .ARM.attributes
                0x00000000       0x1c c:/chibistudio/tools/gnu tools arm embedded/4.9 2015q3/bin/../lib/gcc/arm-none-eabi/4.9.3/../../../../arm-none-eabi/lib/armv7e-m\libg.a(lib_a-memcpy.o)
 .text          0x00000000        0x0 build/obj/vectors.o (symbol from plugin)
 .text          0x00000000        0x0 build/obj/chsys.o (symbol from plugin)
 .text          0x00000000        0x0 build/obj/chdebug.o (symbol from plugin)
 .text          0x00000000        0x0 build/obj/chvt.o (symbol from plugin)
 .text          0x00000000        0x0 build/obj/chschd.o (symbol from plugin)
 .text          0x00000000        0x0 build/obj/chthreads.o (symbol from plugin)
 .text          0x00000000        0x0 build/obj/chtm.o (symbol from plugin)
 .text          0x00000000        0x0 build/obj/chstats.o (symbol from plugin)
 .text          0x00000000        0x0 build/obj/chdynamic.o (symbol from plugin)
 .text          0x00000000        0x0 build/obj/chregistry.o (symbol from plugin)
 .text          0x00000000        0x0 build/obj/chsem.o (symbol from plugin)
 .text          0x00000000        0x0 build/obj/chmtx.o (symbol from plugin)
 .text          0x00000000        0x0 build/obj/chcond.o (symbol from plugin)
 .text          0x00000000        0x0 build/obj/chevents.o (symbol from plugin)
 .text          0x00000000        0x0 build/obj/chmsg.o (symbol from plugin)
 .text          0x00000000        0x0 build/obj/chmboxes.o (symbol from plugin)
 .text          0x00000000        0x0 build/obj/chqueues.o (symbol from plugin)
 .text          0x00000000        0x0 build/obj/chmemcore.o (symbol from plugin)
 .text          0x00000000        0x0 build/obj/chheap.o (symbol from plugin)
 .text          0x00000000        0x0 build/obj/chmempools.o (symbol from plugin)
 .text          0x00000000        0x0 build/obj/chcore.o (symbol from plugin)
 .text          0x00000000        0x0 build/obj/chcore_v7m.o (symbol from plugin)
 .text          0x00000000        0x0 build/obj/osal.o (symbol from plugin)
 .text          0x00000000        0x0 build/obj/hal.o (symbol from plugin)
 .text          0x00000000        0x0 build/obj/st.o (symbol from plugin)
 .text          0x00000000        0x0 build/obj/hal_buffers.o (symbol from plugin)
 .text          0x00000000        0x0 build/obj/hal_queues.o (symbol from plugin)
 .text          0x00000000        0x0 build/obj/hal_mmcsd.o (symbol from plugin)
 .text          0x00000000        0x0 build/obj/i2c.o (symbol from plugin)
 .text          0x00000000        0x0 build/obj/pal.o (symbol from plugin)
 .text          0x00000000        0x0 build/obj/serial.o (symbol from plugin)
 .text          0x00000000        0x0 build/obj/nvic.o (symbol from plugin)
 .text          0x00000000        0x0 build/obj/hal_lld.o (symbol from plugin)
 .text          0x00000000        0x0 build/obj/stm32_dma.o (symbol from plugin)
 .text          0x00000000        0x0 build/obj/st_lld.o (symbol from plugin)
 .text          0x00000000        0x0 build/obj/pal_lld.o (symbol from plugin)
 .text          0x00000000        0x0 build/obj/i2c_lld.o (symbol from plugin)
 .text          0x00000000        0x0 build/obj/serial_lld.o (symbol from plugin)
 .text          0x00000000        0x0 build/obj/board.o (symbol from plugin)
 .text          0x00000000        0x0 build/obj/test.o (symbol from plugin)
 .text          0x00000000        0x0 build/obj/testthd.o (symbol from plugin)
 .text          0x00000000        0x0 build/obj/testsem.o (symbol from plugin)
 .text          0x00000000        0x0 build/obj/testmtx.o (symbol from plugin)
 .text          0x00000000        0x0 build/obj/testmsg.o (symbol from plugin)
 .text          0x00000000        0x0 build/obj/testmbox.o (symbol from plugin)
 .text          0x00000000        0x0 build/obj/testevt.o (symbol from plugin)
 .text          0x00000000        0x0 build/obj/testheap.o (symbol from plugin)
 .text          0x00000000        0x0 build/obj/testpools.o (symbol from plugin)
 .text          0x00000000        0x0 build/obj/testdyn.o (symbol from plugin)
 .text          0x00000000        0x0 build/obj/testqueues.o (symbol from plugin)
 .text          0x00000000        0x0 build/obj/testsys.o (symbol from plugin)
 .text          0x00000000        0x0 build/obj/testbmk.o (symbol from plugin)
 .text          0x00000000        0x0 build/obj/memstreams.o (symbol from plugin)
 .text          0x00000000        0x0 build/obj/chprintf.o (symbol from plugin)
 .text          0x00000000        0x0 build/obj/main.o (symbol from plugin)
 .text          0x00000000        0x0 c:/chibistudio/tools/gnu tools arm embedded/4.9 2015q3/bin/../lib/gcc/arm-none-eabi/4.9.3/../../../../arm-none-eabi/lib/armv7e-m\libg.a(lib_a-atoi.o)
 .data          0x00000000        0x0 c:/chibistudio/tools/gnu tools arm embedded/4.9 2015q3/bin/../lib/gcc/arm-none-eabi/4.9.3/../../../../arm-none-eabi/lib/armv7e-m\libg.a(lib_a-atoi.o)
 .bss           0x00000000        0x0 c:/chibistudio/tools/gnu tools arm embedded/4.9 2015q3/bin/../lib/gcc/arm-none-eabi/4.9.3/../../../../arm-none-eabi/lib/armv7e-m\libg.a(lib_a-atoi.o)
 .text._atoi_r  0x00000000        0x8 c:/chibistudio/tools/gnu tools arm embedded/4.9 2015q3/bin/../lib/gcc/arm-none-eabi/4.9.3/../../../../arm-none-eabi/lib/armv7e-m\libg.a(lib_a-atoi.o)
 .text          0x00000000        0x0 c:/chibistudio/tools/gnu tools arm embedded/4.9 2015q3/bin/../lib/gcc/arm-none-eabi/4.9.3/../../../../arm-none-eabi/lib/armv7e-m\libg.a(lib_a-strtol.o)
 .data          0x00000000        0x0 c:/chibistudio/tools/gnu tools arm embedded/4.9 2015q3/bin/../lib/gcc/arm-none-eabi/4.9.3/../../../../arm-none-eabi/lib/armv7e-m\libg.a(lib_a-strtol.o)
 .bss           0x00000000        0x0 c:/chibistudio/tools/gnu tools arm embedded/4.9 2015q3/bin/../lib/gcc/arm-none-eabi/4.9.3/../../../../arm-none-eabi/lib/armv7e-m\libg.a(lib_a-strtol.o)
 .text          0x00000000        0x0 c:/chibistudio/tools/gnu tools arm embedded/4.9 2015q3/bin/../lib/gcc/arm-none-eabi/4.9.3/../../../../arm-none-eabi/lib/armv7e-m\libg.a(lib_a-ctype_.o)
 .data          0x00000000        0x0 c:/chibistudio/tools/gnu tools arm embedded/4.9 2015q3/bin/../lib/gcc/arm-none-eabi/4.9.3/../../../../arm-none-eabi/lib/armv7e-m\libg.a(lib_a-ctype_.o)
 .bss           0x00000000        0x0 c:/chibistudio/tools/gnu tools arm embedded/4.9 2015q3/bin/../lib/gcc/arm-none-eabi/4.9.3/../../../../arm-none-eabi/lib/armv7e-m\libg.a(lib_a-ctype_.o)
 .text          0x00000000        0x0 c:/chibistudio/tools/gnu tools arm embedded/4.9 2015q3/bin/../lib/gcc/arm-none-eabi/4.9.3/../../../../arm-none-eabi/lib/armv7e-m\libg.a(lib_a-impure.o)
 .data          0x00000000        0x0 c:/chibistudio/tools/gnu tools arm embedded/4.9 2015q3/bin/../lib/gcc/arm-none-eabi/4.9.3/../../../../arm-none-eabi/lib/armv7e-m\libg.a(lib_a-impure.o)
 .bss           0x00000000        0x0 c:/chibistudio/tools/gnu tools arm embedded/4.9 2015q3/bin/../lib/gcc/arm-none-eabi/4.9.3/../../../../arm-none-eabi/lib/armv7e-m\libg.a(lib_a-impure.o)
 .rodata._global_impure_ptr
                0x00000000        0x4 c:/chibistudio/tools/gnu tools arm embedded/4.9 2015q3/bin/../lib/gcc/arm-none-eabi/4.9.3/../../../../arm-none-eabi/lib/armv7e-m\libg.a(lib_a-impure.o)

Memory Configuration

Name             Origin             Length             Attributes
flash            0x08000000         0x00080000
ram0             0x20000000         0x00018000
ram1             0x00000000         0x00000000
ram2             0x00000000         0x00000000
ram3             0x00000000         0x00000000
ram4             0x00000000         0x00000000
ram5             0x00000000         0x00000000
ram6             0x00000000         0x00000000
ram7             0x00000000         0x00000000
*default*        0x00000000         0xffffffff

Linker script and memory map

LOAD build/obj/crt0_v7m.o
LOAD build/obj/chcoreasm_v7m.o
LOAD build/obj/crt1.o
LOAD C:\Users\Ciccio\AppData\Local\Temp\ccXVDL4Z.ltrans0.ltrans.o
LOAD C:\Users\Ciccio\AppData\Local\Temp\ccXVDL4Z.ltrans1.ltrans.o
LOAD C:\Users\Ciccio\AppData\Local\Temp\ccXVDL4Z.ltrans2.ltrans.o
LOAD C:\Users\Ciccio\AppData\Local\Temp\ccXVDL4Z.ltrans3.ltrans.o
LOAD C:\Users\Ciccio\AppData\Local\Temp\ccXVDL4Z.ltrans4.ltrans.o
LOAD C:\Users\Ciccio\AppData\Local\Temp\ccXVDL4Z.ltrans5.ltrans.o
LOAD C:\Users\Ciccio\AppData\Local\Temp\ccXVDL4Z.ltrans6.ltrans.o
LOAD C:\Users\Ciccio\AppData\Local\Temp\ccXVDL4Z.ltrans7.ltrans.o
LOAD C:\Users\Ciccio\AppData\Local\Temp\ccXVDL4Z.ltrans8.ltrans.o
LOAD C:\Users\Ciccio\AppData\Local\Temp\ccXVDL4Z.ltrans9.ltrans.o
LOAD C:\Users\Ciccio\AppData\Local\Temp\ccXVDL4Z.ltrans10.ltrans.o
LOAD C:\Users\Ciccio\AppData\Local\Temp\ccXVDL4Z.ltrans11.ltrans.o
LOAD c:/chibistudio/tools/gnu tools arm embedded/4.9 2015q3/bin/../lib/gcc/arm-none-eabi/4.9.3/armv7e-m\libgcc.a
LOAD c:/chibistudio/tools/gnu tools arm embedded/4.9 2015q3/bin/../lib/gcc/arm-none-eabi/4.9.3/../../../../arm-none-eabi/lib/armv7e-m\libg.a
LOAD c:/chibistudio/tools/gnu tools arm embedded/4.9 2015q3/bin/../lib/gcc/arm-none-eabi/4.9.3/../../../../arm-none-eabi/lib/armv7e-m\libc.a
LOAD build/obj/vectors.o
LOAD build/obj/chsys.o
LOAD build/obj/chdebug.o
LOAD build/obj/chvt.o
LOAD build/obj/chschd.o
LOAD build/obj/chthreads.o
LOAD build/obj/chtm.o
LOAD build/obj/chstats.o
LOAD build/obj/chdynamic.o
LOAD build/obj/chregistry.o
LOAD build/obj/chsem.o
LOAD build/obj/chmtx.o
LOAD build/obj/chcond.o
LOAD build/obj/chevents.o
LOAD build/obj/chmsg.o
LOAD build/obj/chmboxes.o
LOAD build/obj/chqueues.o
LOAD build/obj/chmemcore.o
LOAD build/obj/chheap.o
LOAD build/obj/chmempools.o
LOAD build/obj/chcore.o
LOAD build/obj/chcore_v7m.o
LOAD build/obj/osal.o
LOAD build/obj/hal.o
LOAD build/obj/st.o
LOAD build/obj/hal_buffers.o
LOAD build/obj/hal_queues.o
LOAD build/obj/hal_mmcsd.o
LOAD build/obj/i2c.o
LOAD build/obj/pal.o
LOAD build/obj/serial.o
LOAD build/obj/nvic.o
LOAD build/obj/hal_lld.o
LOAD build/obj/stm32_dma.o
LOAD build/obj/st_lld.o
LOAD build/obj/pal_lld.o
LOAD build/obj/i2c_lld.o
LOAD build/obj/serial_lld.o
LOAD build/obj/board.o
LOAD build/obj/test.o
LOAD build/obj/testthd.o
LOAD build/obj/testsem.o
LOAD build/obj/testmtx.o
LOAD build/obj/testmsg.o
LOAD build/obj/testmbox.o
LOAD build/obj/testevt.o
LOAD build/obj/testheap.o
LOAD build/obj/testpools.o
LOAD build/obj/testdyn.o
LOAD build/obj/testqueues.o
LOAD build/obj/testsys.o
LOAD build/obj/testbmk.o
LOAD build/obj/memstreams.o
LOAD build/obj/chprintf.o
LOAD build/obj/main.o
                0x20000000                __ram0_start__ = ORIGIN (ram0)
                0x00018000                __ram0_size__ = 0x18000
                0x20018000                __ram0_end__ = (__ram0_start__ + __ram0_size__)
                0x00000000                __ram1_start__ = ORIGIN (ram1)
                0x00000000                __ram1_size__ = 0x0
                0x00000000                __ram1_end__ = (__ram1_start__ + __ram1_size__)
                0x00000000                __ram2_start__ = ORIGIN (ram2)
                0x00000000                __ram2_size__ = 0x0
                0x00000000                __ram2_end__ = (__ram2_start__ + __ram2_size__)
                0x00000000                __ram3_start__ = ORIGIN (ram3)
                0x00000000                __ram3_size__ = 0x0
                0x00000000                __ram3_end__ = (__ram3_start__ + __ram3_size__)
                0x00000000                __ram4_start__ = ORIGIN (ram4)
                0x00000000                __ram4_size__ = 0x0
                0x00000000                __ram4_end__ = (__ram4_start__ + __ram4_size__)
                0x00000000                __ram5_start__ = ORIGIN (ram5)
                0x00000000                __ram5_size__ = 0x0
                0x00000000                __ram5_end__ = (__ram5_start__ + __ram5_size__)
                0x00000000                __ram6_start__ = ORIGIN (ram6)
                0x00000000                __ram6_size__ = 0x0
                0x00000000                __ram6_end__ = (__ram6_start__ + __ram6_size__)
                0x00000000                __ram7_start__ = ORIGIN (ram7)
                0x00000000                __ram7_size__ = 0x0
                0x00000000                __ram7_end__ = (__ram7_start__ + __ram7_size__)
                0x00000000                . = 0x0
                0x00000000                _text = .

startup         0x08000000      0x1c0
 *(.vectors)
 .vectors       0x08000000      0x1c0 C:\Users\Ciccio\AppData\Local\Temp\ccXVDL4Z.ltrans0.ltrans.o
                0x08000000                _vectors

constructors    0x080001c0        0x0
                0x080001c0                __init_array_start = .
 *(SORT(.init_array.*))
 *(.init_array)
                0x080001c0                __init_array_end = .

destructors     0x080001c0        0x0
                0x080001c0                __fini_array_start = .
 *(.fini_array)
 *(SORT(.fini_array.*))
                0x080001c0                __fini_array_end = .

.text           0x080001c0     0xe804
 *(.text)
 .text          0x080001c0       0xc4 build/obj/crt0_v7m.o
                0x080001c0                Reset_Handler
 *fill*         0x08000284        0xc 
 .text          0x08000290       0x40 build/obj/chcoreasm_v7m.o
                0x08000290                _port_switch
                0x080002a0                _port_thread_start
                0x080002b8                _port_switch_from_isr
                0x080002cc                _port_exit_from_isr
 *(.text.*)
 .text.bmk13_execute
                0x080002d0       0xe8 C:\Users\Ciccio\AppData\Local\Temp\ccXVDL4Z.ltrans0.ltrans.o
 *fill*         0x080003b8        0x8 
 .text.long_to_string_with_divisor
                0x080003c0       0xa0 C:\Users\Ciccio\AppData\Local\Temp\ccXVDL4Z.ltrans0.ltrans.o
 .text.ch_ltoa  0x08000460       0x20 C:\Users\Ciccio\AppData\Local\Temp\ccXVDL4Z.ltrans0.ltrans.o
 .text.chvprintf
                0x08000480      0x44c C:\Users\Ciccio\AppData\Local\Temp\ccXVDL4Z.ltrans0.ltrans.o
 *fill*         0x080008cc        0x4 
 .text.chprintf
                0x080008d0       0x28 C:\Users\Ciccio\AppData\Local\Temp\ccXVDL4Z.ltrans0.ltrans.o
 *fill*         0x080008f8        0x8 
 .text.chIQGet  0x08000900       0x1c C:\Users\Ciccio\AppData\Local\Temp\ccXVDL4Z.ltrans0.ltrans.o
 *fill*         0x0800091c        0x4 
 .text.readreg  0x08000920       0x80 C:\Users\Ciccio\AppData\Local\Temp\ccXVDL4Z.ltrans0.ltrans.o
 .text.writereg
                0x080009a0       0x84 C:\Users\Ciccio\AppData\Local\Temp\ccXVDL4Z.ltrans0.ltrans.o
 *fill*         0x08000a24        0xc 
 .text.reset    0x08000a30       0x1c C:\Users\Ciccio\AppData\Local\Temp\ccXVDL4Z.ltrans0.ltrans.o
 *fill*         0x08000a4c        0x4 
 .text.setFreq  0x08000a50       0x90 C:\Users\Ciccio\AppData\Local\Temp\ccXVDL4Z.ltrans0.ltrans.o
 .text.setPWM   0x08000ae0       0xd0 C:\Users\Ciccio\AppData\Local\Temp\ccXVDL4Z.ltrans0.ltrans.o
 .text.trasformToPWM
                0x08000bb0       0x54 C:\Users\Ciccio\AppData\Local\Temp\ccXVDL4Z.ltrans0.ltrans.o
 *fill*         0x08000c04        0xc 
 .text.thReader
                0x08000c10      0x228 C:\Users\Ciccio\AppData\Local\Temp\ccXVDL4Z.ltrans0.ltrans.o
 *fill*         0x08000e38        0x8 
 .text.main     0x08000e40       0xb8 C:\Users\Ciccio\AppData\Local\Temp\ccXVDL4Z.ltrans0.ltrans.o
                0x08000e40                main
 *fill*         0x08000ef8        0x8 
 .text.queues2_setup.lto_priv.51
                0x08000f00       0x2c C:\Users\Ciccio\AppData\Local\Temp\ccXVDL4Z.ltrans1.ltrans.o
                0x08000f00                queues2_setup.lto_priv.51
 *fill*         0x08000f2c        0x4 
 .text.thread2.lto_priv.148
                0x08000f30       0x1c C:\Users\Ciccio\AppData\Local\Temp\ccXVDL4Z.ltrans1.ltrans.o
 *fill*         0x08000f4c        0x4 
 .text.queues2_execute.lto_priv.52
                0x08000f50      0x298 C:\Users\Ciccio\AppData\Local\Temp\ccXVDL4Z.ltrans1.ltrans.o
                0x08000f50                queues2_execute.lto_priv.52
 *fill*         0x080011e8        0x8 
 .text.port_get_irq_status
                0x080011f0       0x14 C:\Users\Ciccio\AppData\Local\Temp\ccXVDL4Z.ltrans1.ltrans.o
 *fill*         0x08001204        0xc 
 .text.port_irq_enabled
                0x08001210       0x18 C:\Users\Ciccio\AppData\Local\Temp\ccXVDL4Z.ltrans1.ltrans.o
 *fill*         0x08001228        0x8 
 .text.port_lock.lto_priv.160
                0x08001230       0x10 C:\Users\Ciccio\AppData\Local\Temp\ccXVDL4Z.ltrans1.ltrans.o
 .text.port_unlock.lto_priv.158
                0x08001240       0x10 C:\Users\Ciccio\AppData\Local\Temp\ccXVDL4Z.ltrans1.ltrans.o
 .text.port_lock_from_isr
                0x08001250        0x8 C:\Users\Ciccio\AppData\Local\Temp\ccXVDL4Z.ltrans1.ltrans.o
 *fill*         0x08001258        0x8 
 .text.port_unlock_from_isr
                0x08001260        0x8 C:\Users\Ciccio\AppData\Local\Temp\ccXVDL4Z.ltrans1.ltrans.o
 *fill*         0x08001268        0x8 
 .text.port_disable
                0x08001270        0x4 C:\Users\Ciccio\AppData\Local\Temp\ccXVDL4Z.ltrans1.ltrans.o
 *fill*         0x08001274        0xc 
 .text.port_suspend
                0x08001280       0x14 C:\Users\Ciccio\AppData\Local\Temp\ccXVDL4Z.ltrans1.ltrans.o
 *fill*         0x08001294        0xc 
 .text.port_enable
                0x080012a0       0x14 C:\Users\Ciccio\AppData\Local\Temp\ccXVDL4Z.ltrans1.ltrans.o
 *fill*         0x080012b4        0xc 
 .text.chSysDisable
                0x080012c0        0xc C:\Users\Ciccio\AppData\Local\Temp\ccXVDL4Z.ltrans1.ltrans.o
 *fill*         0x080012cc        0x4 
 .text.chSysSuspend
                0x080012d0        0xc C:\Users\Ciccio\AppData\Local\Temp\ccXVDL4Z.ltrans1.ltrans.o
 *fill*         0x080012dc        0x4 
 .text.chSysEnable
                0x080012e0        0xc C:\Users\Ciccio\AppData\Local\Temp\ccXVDL4Z.ltrans1.ltrans.o
 *fill*         0x080012ec        0x4 
 .text.chSysLock.lto_priv.156
                0x080012f0       0x10 C:\Users\Ciccio\AppData\Local\Temp\ccXVDL4Z.ltrans1.ltrans.o
 .text.chSysUnlock.lto_priv.153
                0x08001300       0x38 C:\Users\Ciccio\AppData\Local\Temp\ccXVDL4Z.ltrans1.ltrans.o
 *fill*         0x08001338        0x8 
 .text.chSysLockFromISR
                0x08001340       0x10 C:\Users\Ciccio\AppData\Local\Temp\ccXVDL4Z.ltrans1.ltrans.o
 .text.chSysUnlockFromISR
                0x08001350       0x10 C:\Users\Ciccio\AppData\Local\Temp\ccXVDL4Z.ltrans1.ltrans.o
 .text.chSysUnconditionalLock
                0x08001360       0x1c C:\Users\Ciccio\AppData\Local\Temp\ccXVDL4Z.ltrans1.ltrans.o
 *fill*         0x0800137c        0x4 
 .text.chSysUnconditionalUnlock
                0x08001380       0x20 C:\Users\Ciccio\AppData\Local\Temp\ccXVDL4Z.ltrans1.ltrans.o
 .text.chVTObjectInit
                0x080013a0       0x10 C:\Users\Ciccio\AppData\Local\Temp\ccXVDL4Z.ltrans1.ltrans.o
 .text.chVTIsArmedI
                0x080013b0       0x20 C:\Users\Ciccio\AppData\Local\Temp\ccXVDL4Z.ltrans1.ltrans.o
 .text.chVTIsArmed
                0x080013d0       0x28 C:\Users\Ciccio\AppData\Local\Temp\ccXVDL4Z.ltrans1.ltrans.o
 *fill*         0x080013f8        0x8 
 .text.chVTResetI
                0x08001400       0x20 C:\Users\Ciccio\AppData\Local\Temp\ccXVDL4Z.ltrans1.ltrans.o
 .text.chVTSetI
                0x08001420       0x24 C:\Users\Ciccio\AppData\Local\Temp\ccXVDL4Z.ltrans1.ltrans.o
 *fill*         0x08001444        0xc 
 .text.chVTSet  0x08001450       0x28 C:\Users\Ciccio\AppData\Local\Temp\ccXVDL4Z.ltrans1.ltrans.o
 *fill*         0x08001478        0x8 
 .text.vtcb     0x08001480       0x28 C:\Users\Ciccio\AppData\Local\Temp\ccXVDL4Z.ltrans1.ltrans.o
 *fill*         0x080014a8        0x8 
 .text.sys1_execute.lto_priv.50
                0x080014b0       0x90 C:\Users\Ciccio\AppData\Local\Temp\ccXVDL4Z.ltrans1.ltrans.o
                0x080014b0                sys1_execute.lto_priv.50
 .text.sys2_execute.lto_priv.49
                0x08001540       0x14 C:\Users\Ciccio\AppData\Local\Temp\ccXVDL4Z.ltrans1.ltrans.o
                0x08001540                sys2_execute.lto_priv.49
 *fill*         0x08001554        0xc 
 .text.sys3_execute.lto_priv.48
                0x08001560       0xf4 C:\Users\Ciccio\AppData\Local\Temp\ccXVDL4Z.ltrans1.ltrans.o
                0x08001560                sys3_execute.lto_priv.48
 *fill*         0x08001654        0xc 
 .text.port_lock.lto_priv.161
                0x08001660       0x10 C:\Users\Ciccio\AppData\Local\Temp\ccXVDL4Z.ltrans1.ltrans.o
 .text.port_unlock.lto_priv.159
                0x08001670       0x10 C:\Users\Ciccio\AppData\Local\Temp\ccXVDL4Z.ltrans1.ltrans.o
 .text.chSysLock.lto_priv.157
                0x08001680       0x10 C:\Users\Ciccio\AppData\Local\Temp\ccXVDL4Z.ltrans1.ltrans.o
 .text.chSysUnlock.lto_priv.154
                0x08001690       0x38 C:\Users\Ciccio\AppData\Local\Temp\ccXVDL4Z.ltrans1.ltrans.o
 *fill*         0x080016c8        0x8 
 .text.chThdGetSelfX
                0x080016d0        0xc C:\Users\Ciccio\AppData\Local\Temp\ccXVDL4Z.ltrans1.ltrans.o
 *fill*         0x080016dc        0x4 
 .text.chThdGetPriorityX.lto_priv.151
                0x080016e0       0x10 C:\Users\Ciccio\AppData\Local\Temp\ccXVDL4Z.ltrans1.ltrans.o
 .text.chThdShouldTerminateX
                0x080016f0       0x20 C:\Users\Ciccio\AppData\Local\Temp\ccXVDL4Z.ltrans1.ltrans.o
 .text.chMsgGet
                0x08001710       0x10 C:\Users\Ciccio\AppData\Local\Temp\ccXVDL4Z.ltrans1.ltrans.o
 .text.chIQGet  0x08001720       0x1c C:\Users\Ciccio\AppData\Local\Temp\ccXVDL4Z.ltrans1.ltrans.o
 *fill*         0x0800173c        0x4 
 .text.thread1  0x08001740       0x14 C:\Users\Ciccio\AppData\Local\Temp\ccXVDL4Z.ltrans1.ltrans.o
 *fill*         0x08001754        0xc 
 .text.thread2.lto_priv.149
                0x08001760       0x28 C:\Users\Ciccio\AppData\Local\Temp\ccXVDL4Z.ltrans1.ltrans.o
 *fill*         0x08001788        0x8 
 .text.msg_loop_test
                0x08001790       0x48 C:\Users\Ciccio\AppData\Local\Temp\ccXVDL4Z.ltrans1.ltrans.o
 *fill*         0x080017d8        0x8 
 .text.bmk1_execute.lto_priv.45
                0x080017e0       0x74 C:\Users\Ciccio\AppData\Local\Temp\ccXVDL4Z.ltrans1.ltrans.o
                0x080017e0                bmk1_execute.lto_priv.45
 *fill*         0x08001854        0xc 
 .text.bmk2_execute.lto_priv.44
                0x08001860       0x74 C:\Users\Ciccio\AppData\Local\Temp\ccXVDL4Z.ltrans1.ltrans.o
                0x08001860                bmk2_execute.lto_priv.44
 *fill*         0x080018d4        0xc 
 .text.bmk3_execute.lto_priv.43
                0x080018e0      0x100 C:\Users\Ciccio\AppData\Local\Temp\ccXVDL4Z.ltrans1.ltrans.o
                0x080018e0                bmk3_execute.lto_priv.43
 .text.thread4  0x080019e0       0x2c C:\Users\Ciccio\AppData\Local\Temp\ccXVDL4Z.ltrans1.ltrans.o
 *fill*         0x08001a0c        0x4 
 .text.bmk4_execute.lto_priv.42
                0x08001a10       0xc0 C:\Users\Ciccio\AppData\Local\Temp\ccXVDL4Z.ltrans1.ltrans.o
                0x08001a10                bmk4_execute.lto_priv.42
 .text.bmk5_execute.lto_priv.41
                0x08001ad0       0x80 C:\Users\Ciccio\AppData\Local\Temp\ccXVDL4Z.ltrans1.ltrans.o
                0x08001ad0                bmk5_execute.lto_priv.41
 .text.bmk6_execute.lto_priv.40
                0x08001b50       0x78 C:\Users\Ciccio\AppData\Local\Temp\ccXVDL4Z.ltrans1.ltrans.o
                0x08001b50                bmk6_execute.lto_priv.40
 *fill*         0x08001bc8        0x8 
 .text.thread3  0x08001bd0       0x28 C:\Users\Ciccio\AppData\Local\Temp\ccXVDL4Z.ltrans1.ltrans.o
 *fill*         0x08001bf8        0x8 
 .text.bmk7_setup.lto_priv.38
                0x08001c00       0x10 C:\Users\Ciccio\AppData\Local\Temp\ccXVDL4Z.ltrans1.ltrans.o
                0x08001c00                bmk7_setup.lto_priv.38
 .text.bmk7_execute.lto_priv.39
                0x08001c10      0x138 C:\Users\Ciccio\AppData\Local\Temp\ccXVDL4Z.ltrans1.ltrans.o
                0x08001c10                bmk7_execute.lto_priv.39
 *fill*         0x08001d48        0x8 
 .text.thread8  0x08001d50       0x38 C:\Users\Ciccio\AppData\Local\Temp\ccXVDL4Z.ltrans1.ltrans.o
 *fill*         0x08001d88        0x8 
 .text.bmk8_execute.lto_priv.37
                0x08001d90       0xf4 C:\Users\Ciccio\AppData\Local\Temp\ccXVDL4Z.ltrans1.ltrans.o
                0x08001d90                bmk8_execute.lto_priv.37
 *fill*         0x08001e84        0xc 
 .text.bmk9_execute.lto_priv.36
                0x08001e90       0xa8 C:\Users\Ciccio\AppData\Local\Temp\ccXVDL4Z.ltrans1.ltrans.o
                0x08001e90                bmk9_execute.lto_priv.36
 *fill*         0x08001f38        0x8 
 .text.tmo      0x08001f40        0x8 C:\Users\Ciccio\AppData\Local\Temp\ccXVDL4Z.ltrans1.ltrans.o
 *fill*         0x08001f48        0x8 
 .text.bmk10_execute.lto_priv.35
                0x08001f50       0x8c C:\Users\Ciccio\AppData\Local\Temp\ccXVDL4Z.ltrans1.ltrans.o
                0x08001f50                bmk10_execute.lto_priv.35
 *fill*         0x08001fdc        0x4 
 .text.bmk11_setup.lto_priv.33
                0x08001fe0       0x10 C:\Users\Ciccio\AppData\Local\Temp\ccXVDL4Z.ltrans1.ltrans.o
                0x08001fe0                bmk11_setup.lto_priv.33
 .text.bmk11_execute.lto_priv.34
                0x08001ff0       0x84 C:\Users\Ciccio\AppData\Local\Temp\ccXVDL4Z.ltrans1.ltrans.o
                0x08001ff0                bmk11_execute.lto_priv.34
 *fill*         0x08002074        0xc 
 .text.bmk12_setup.lto_priv.31
                0x08002080       0x10 C:\Users\Ciccio\AppData\Local\Temp\ccXVDL4Z.ltrans1.ltrans.o
                0x08002080                bmk12_setup.lto_priv.31
 .text.bmk12_execute.lto_priv.32
                0x08002090       0x84 C:\Users\Ciccio\AppData\Local\Temp\ccXVDL4Z.ltrans1.ltrans.o
                0x08002090                bmk12_execute.lto_priv.32
 *fill*         0x08002114        0xc 
 .text.evt3_setup.lto_priv.68
                0x08002120        0xc C:\Users\Ciccio\AppData\Local\Temp\ccXVDL4Z.ltrans2.ltrans.o
                0x08002120                evt3_setup.lto_priv.68
 *fill*         0x0800212c        0x4 
 .text.evt3_execute.lto_priv.69
                0x08002130       0xe8 C:\Users\Ciccio\AppData\Local\Temp\ccXVDL4Z.ltrans2.ltrans.o
                0x08002130                evt3_execute.lto_priv.69
 *fill*         0x08002218        0x8 
 .text.heap1_setup.lto_priv.66
                0x08002220       0x18 C:\Users\Ciccio\AppData\Local\Temp\ccXVDL4Z.ltrans2.ltrans.o
                0x08002220                heap1_setup.lto_priv.66
 *fill*         0x08002238        0x8 
 .text.heap1_execute.lto_priv.67
                0x08002240      0x2d4 C:\Users\Ciccio\AppData\Local\Temp\ccXVDL4Z.ltrans2.ltrans.o
                0x08002240                heap1_execute.lto_priv.67
 *fill*         0x08002514        0xc 
 .text.null_provider
                0x08002520        0xc C:\Users\Ciccio\AppData\Local\Temp\ccXVDL4Z.ltrans2.ltrans.o
 *fill*         0x0800252c        0x4 
 .text.pools1_setup.lto_priv.64
                0x08002530       0x14 C:\Users\Ciccio\AppData\Local\Temp\ccXVDL4Z.ltrans2.ltrans.o
                0x08002530                pools1_setup.lto_priv.64
 *fill*         0x08002544        0xc 
 .text.pools1_execute.lto_priv.65
                0x08002550      0x110 C:\Users\Ciccio\AppData\Local\Temp\ccXVDL4Z.ltrans2.ltrans.o
                0x08002550                pools1_execute.lto_priv.65
 .text.chThdGetSelfX.lto_priv.168
                0x08002660        0xc C:\Users\Ciccio\AppData\Local\Temp\ccXVDL4Z.ltrans2.ltrans.o
 *fill*         0x0800266c        0x4 
 .text.chThdGetPriorityX
                0x08002670       0x10 C:\Users\Ciccio\AppData\Local\Temp\ccXVDL4Z.ltrans2.ltrans.o
 .text.thread   0x08002680       0x18 C:\Users\Ciccio\AppData\Local\Temp\ccXVDL4Z.ltrans2.ltrans.o
 *fill*         0x08002698        0x8 
 .text.dyn1_setup.lto_priv.60
                0x080026a0       0x18 C:\Users\Ciccio\AppData\Local\Temp\ccXVDL4Z.ltrans2.ltrans.o
                0x080026a0                dyn1_setup.lto_priv.60
 *fill*         0x080026b8        0x8 
 .text.dyn1_execute.lto_priv.61
                0x080026c0      0x134 C:\Users\Ciccio\AppData\Local\Temp\ccXVDL4Z.ltrans2.ltrans.o
                0x080026c0                dyn1_execute.lto_priv.61
 *fill*         0x080027f4        0xc 
 .text.dyn2_setup.lto_priv.58
                0x08002800       0x14 C:\Users\Ciccio\AppData\Local\Temp\ccXVDL4Z.ltrans2.ltrans.o
                0x08002800                dyn2_setup.lto_priv.58
 *fill*         0x08002814        0xc 
 .text.dyn2_execute.lto_priv.59
                0x08002820      0x168 C:\Users\Ciccio\AppData\Local\Temp\ccXVDL4Z.ltrans2.ltrans.o
                0x08002820                dyn2_execute.lto_priv.59
 *fill*         0x08002988        0x8 
 .text.regfind  0x08002990       0x4c C:\Users\Ciccio\AppData\Local\Temp\ccXVDL4Z.ltrans2.ltrans.o
 *fill*         0x080029dc        0x4 
 .text.dyn3_setup.lto_priv.56
                0x080029e0       0x18 C:\Users\Ciccio\AppData\Local\Temp\ccXVDL4Z.ltrans2.ltrans.o
                0x080029e0                dyn3_setup.lto_priv.56
 *fill*         0x080029f8        0x8 
 .text.dyn3_execute.lto_priv.57
                0x08002a00      0x198 C:\Users\Ciccio\AppData\Local\Temp\ccXVDL4Z.ltrans2.ltrans.o
                0x08002a00                dyn3_execute.lto_priv.57
 *fill*         0x08002b98        0x8 
 .text.port_lock
                0x08002ba0       0x10 C:\Users\Ciccio\AppData\Local\Temp\ccXVDL4Z.ltrans2.ltrans.o
 .text.port_unlock
                0x08002bb0       0x10 C:\Users\Ciccio\AppData\Local\Temp\ccXVDL4Z.ltrans2.ltrans.o
 .text.chSysLock.lto_priv.155
                0x08002bc0       0x10 C:\Users\Ciccio\AppData\Local\Temp\ccXVDL4Z.ltrans2.ltrans.o
                0x08002bc0                chSysLock.lto_priv.155
 .text.chSysUnlock.lto_priv.152
                0x08002bd0       0x38 C:\Users\Ciccio\AppData\Local\Temp\ccXVDL4Z.ltrans2.ltrans.o
                0x08002bd0                chSysUnlock.lto_priv.152
 *fill*         0x08002c08        0x8 
 .text.chThdGetSelfX.lto_priv.169
                0x08002c10        0xc C:\Users\Ciccio\AppData\Local\Temp\ccXVDL4Z.ltrans2.ltrans.o
 *fill*         0x08002c1c        0x4 
 .text.chThdGetPriorityX.lto_priv.150
                0x08002c20       0x10 C:\Users\Ciccio\AppData\Local\Temp\ccXVDL4Z.ltrans2.ltrans.o
                0x08002c20                chThdGetPriorityX.lto_priv.150
 .text.chIQGetFullI
                0x08002c30       0x18 C:\Users\Ciccio\AppData\Local\Temp\ccXVDL4Z.ltrans2.ltrans.o
 *fill*         0x08002c48        0x8 
 .text.chIQIsEmptyI
                0x08002c50       0x20 C:\Users\Ciccio\AppData\Local\Temp\ccXVDL4Z.ltrans2.ltrans.o
 .text.chIQIsFullI
                0x08002c70       0x34 C:\Users\Ciccio\AppData\Local\Temp\ccXVDL4Z.ltrans2.ltrans.o
 *fill*         0x08002ca4        0xc 
 .text.chIQGet  0x08002cb0       0x1c C:\Users\Ciccio\AppData\Local\Temp\ccXVDL4Z.ltrans2.ltrans.o
 *fill*         0x08002ccc        0x4 
 .text.chOQGetFullI.lto_priv.164
                0x08002cd0       0x28 C:\Users\Ciccio\AppData\Local\Temp\ccXVDL4Z.ltrans2.ltrans.o
                0x08002cd0                chOQGetFullI.lto_priv.164
 *fill*         0x08002cf8        0x8 
 .text.chOQIsEmptyI.lto_priv.165
                0x08002d00       0x34 C:\Users\Ciccio\AppData\Local\Temp\ccXVDL4Z.ltrans2.ltrans.o
                0x08002d00                chOQIsEmptyI.lto_priv.165
 *fill*         0x08002d34        0xc 
 .text.chOQIsFullI.lto_priv.163
                0x08002d40       0x20 C:\Users\Ciccio\AppData\Local\Temp\ccXVDL4Z.ltrans2.ltrans.o
                0x08002d40                chOQIsFullI.lto_priv.163
 .text.chOQPut.lto_priv.166
                0x08002d60       0x28 C:\Users\Ciccio\AppData\Local\Temp\ccXVDL4Z.ltrans2.ltrans.o
                0x08002d60                chOQPut.lto_priv.166
 *fill*         0x08002d88        0x8 
 .text.notify.lto_priv.55
                0x08002d90        0x8 C:\Users\Ciccio\AppData\Local\Temp\ccXVDL4Z.ltrans2.ltrans.o
                0x08002d90                notify.lto_priv.55
 *fill*         0x08002d98        0x8 
 .text.queues1_setup.lto_priv.53
                0x08002da0       0x2c C:\Users\Ciccio\AppData\Local\Temp\ccXVDL4Z.ltrans2.ltrans.o
                0x08002da0                queues1_setup.lto_priv.53
 *fill*         0x08002dcc        0x4 
 .text.thread1  0x08002dd0       0x1c C:\Users\Ciccio\AppData\Local\Temp\ccXVDL4Z.ltrans2.ltrans.o
 *fill*         0x08002dec        0x4 
 .text.queues1_execute.lto_priv.54
                0x08002df0      0x2f0 C:\Users\Ciccio\AppData\Local\Temp\ccXVDL4Z.ltrans2.ltrans.o
                0x08002df0                queues1_execute.lto_priv.54
 .text.mbox1_setup.lto_priv.77
                0x080030e0       0x18 C:\Users\Ciccio\AppData\Local\Temp\ccXVDL4Z.ltrans3.ltrans.o
                0x080030e0                mbox1_setup.lto_priv.77
 *fill*         0x080030f8        0x8 
 .text.mbox1_execute.lto_priv.78
                0x08003100      0x81c C:\Users\Ciccio\AppData\Local\Temp\ccXVDL4Z.ltrans3.ltrans.o
                0x08003100                mbox1_execute.lto_priv.78
 *fill*         0x0800391c        0x4 
 .text.port_lock
                0x08003920       0x10 C:\Users\Ciccio\AppData\Local\Temp\ccXVDL4Z.ltrans3.ltrans.o
 .text.port_unlock
                0x08003930       0x10 C:\Users\Ciccio\AppData\Local\Temp\ccXVDL4Z.ltrans3.ltrans.o
 .text.st_lld_get_counter
                0x08003940        0xc C:\Users\Ciccio\AppData\Local\Temp\ccXVDL4Z.ltrans3.ltrans.o
 *fill*         0x0800394c        0x4 
 .text.port_timer_get_time
                0x08003950        0xc C:\Users\Ciccio\AppData\Local\Temp\ccXVDL4Z.ltrans3.ltrans.o
 *fill*         0x0800395c        0x4 
 .text.chSysLock.lto_priv.178
                0x08003960       0x10 C:\Users\Ciccio\AppData\Local\Temp\ccXVDL4Z.ltrans3.ltrans.o
 .text.chSysUnlock.lto_priv.176
                0x08003970       0x38 C:\Users\Ciccio\AppData\Local\Temp\ccXVDL4Z.ltrans3.ltrans.o
 *fill*         0x080039a8        0x8 
 .text.chVTGetSystemTimeX
                0x080039b0        0xc C:\Users\Ciccio\AppData\Local\Temp\ccXVDL4Z.ltrans3.ltrans.o
 *fill*         0x080039bc        0x4 
 .text.chVTGetSystemTime
                0x080039c0       0x1c C:\Users\Ciccio\AppData\Local\Temp\ccXVDL4Z.ltrans3.ltrans.o
 *fill*         0x080039dc        0x4 
 .text.chThdGetSelfX
                0x080039e0        0xc C:\Users\Ciccio\AppData\Local\Temp\ccXVDL4Z.ltrans3.ltrans.o
 *fill*         0x080039ec        0x4 
 .text.chThdGetPriorityX
                0x080039f0       0x10 C:\Users\Ciccio\AppData\Local\Temp\ccXVDL4Z.ltrans3.ltrans.o
 .text.chEvtObjectInit
                0x08003a00       0x10 C:\Users\Ciccio\AppData\Local\Temp\ccXVDL4Z.ltrans3.ltrans.o
 .text.chEvtRegisterMask
                0x08003a10       0x20 C:\Users\Ciccio\AppData\Local\Temp\ccXVDL4Z.ltrans3.ltrans.o
 .text.chEvtIsListeningI
                0x08003a30       0x1c C:\Users\Ciccio\AppData\Local\Temp\ccXVDL4Z.ltrans3.ltrans.o
 *fill*         0x08003a4c        0x4 
 .text.chEvtBroadcast
                0x08003a50       0x14 C:\Users\Ciccio\AppData\Local\Temp\ccXVDL4Z.ltrans3.ltrans.o
 *fill*         0x08003a64        0xc 
 .text.evt1_setup.lto_priv.72
                0x08003a70        0xc C:\Users\Ciccio\AppData\Local\Temp\ccXVDL4Z.ltrans3.ltrans.o
                0x08003a70                evt1_setup.lto_priv.72
 *fill*         0x08003a7c        0x4 
 .text.h1.lto_priv.74
                0x08003a80       0x14 C:\Users\Ciccio\AppData\Local\Temp\ccXVDL4Z.ltrans3.ltrans.o
                0x08003a80                h1.lto_priv.74
 *fill*         0x08003a94        0xc 
 .text.h2.lto_priv.75
                0x08003aa0       0x14 C:\Users\Ciccio\AppData\Local\Temp\ccXVDL4Z.ltrans3.ltrans.o
                0x08003aa0                h2.lto_priv.75
 *fill*         0x08003ab4        0xc 
 .text.h3.lto_priv.76
                0x08003ac0       0x14 C:\Users\Ciccio\AppData\Local\Temp\ccXVDL4Z.ltrans3.ltrans.o
                0x08003ac0                h3.lto_priv.76
 *fill*         0x08003ad4        0xc 
 .text.evt1_execute.lto_priv.73
                0x08003ae0       0xb4 C:\Users\Ciccio\AppData\Local\Temp\ccXVDL4Z.ltrans3.ltrans.o
                0x08003ae0                evt1_execute.lto_priv.73
 *fill*         0x08003b94        0xc 
 .text.evt2_setup.lto_priv.70
                0x08003ba0        0xc C:\Users\Ciccio\AppData\Local\Temp\ccXVDL4Z.ltrans3.ltrans.o
                0x08003ba0                evt2_setup.lto_priv.70
 *fill*         0x08003bac        0x4 
 .text.thread1  0x08003bb0       0x1c C:\Users\Ciccio\AppData\Local\Temp\ccXVDL4Z.ltrans3.ltrans.o
 *fill*         0x08003bcc        0x4 
 .text.thread2  0x08003bd0       0x28 C:\Users\Ciccio\AppData\Local\Temp\ccXVDL4Z.ltrans3.ltrans.o
 *fill*         0x08003bf8        0x8 
 .text.evt2_execute.lto_priv.71
                0x08003c00      0x354 C:\Users\Ciccio\AppData\Local\Temp\ccXVDL4Z.ltrans3.ltrans.o
                0x08003c00                evt2_execute.lto_priv.71
 *fill*         0x08003f54        0xc 
 .text.sem1_execute.lto_priv.98
                0x08003f60      0x174 C:\Users\Ciccio\AppData\Local\Temp\ccXVDL4Z.ltrans4.ltrans.o
                0x08003f60                sem1_execute.lto_priv.98
 *fill*         0x080040d4        0xc 
 .text.sem2_setup.lto_priv.95
                0x080040e0       0x10 C:\Users\Ciccio\AppData\Local\Temp\ccXVDL4Z.ltrans4.ltrans.o
                0x080040e0                sem2_setup.lto_priv.95
 .text.thread2  0x080040f0       0x2c C:\Users\Ciccio\AppData\Local\Temp\ccXVDL4Z.ltrans4.ltrans.o
 *fill*         0x0800411c        0x4 
 .text.sem2_execute.lto_priv.96
                0x08004120      0x1a0 C:\Users\Ciccio\AppData\Local\Temp\ccXVDL4Z.ltrans4.ltrans.o
                0x08004120                sem2_execute.lto_priv.96
 .text.sem3_setup.lto_priv.93
                0x080042c0       0x10 C:\Users\Ciccio\AppData\Local\Temp\ccXVDL4Z.ltrans4.ltrans.o
                0x080042c0                sem3_setup.lto_priv.93
 .text.thread3  0x080042d0       0x1c C:\Users\Ciccio\AppData\Local\Temp\ccXVDL4Z.ltrans4.ltrans.o
 *fill*         0x080042ec        0x4 
 .text.sem3_execute.lto_priv.94
                0x080042f0       0xa8 C:\Users\Ciccio\AppData\Local\Temp\ccXVDL4Z.ltrans4.ltrans.o
                0x080042f0                sem3_execute.lto_priv.94
 *fill*         0x08004398        0x8 
 .text.thread4  0x080043a0       0x14 C:\Users\Ciccio\AppData\Local\Temp\ccXVDL4Z.ltrans4.ltrans.o
 *fill*         0x080043b4        0xc 
 .text.sem4_execute.lto_priv.92
                0x080043c0      0x19c C:\Users\Ciccio\AppData\Local\Temp\ccXVDL4Z.ltrans4.ltrans.o
                0x080043c0                sem4_execute.lto_priv.92
 *fill*         0x0800455c        0x4 
 .text.port_lock.lto_priv.186
                0x08004560       0x10 C:\Users\Ciccio\AppData\Local\Temp\ccXVDL4Z.ltrans4.ltrans.o
 .text.port_unlock.lto_priv.184
                0x08004570       0x10 C:\Users\Ciccio\AppData\Local\Temp\ccXVDL4Z.ltrans4.ltrans.o
 .text.queue_isempty.lto_priv.203
                0x08004580       0x1c C:\Users\Ciccio\AppData\Local\Temp\ccXVDL4Z.ltrans4.ltrans.o
 *fill*         0x0800459c        0x4 
 .text.chSysLock.lto_priv.201
                0x080045a0       0x10 C:\Users\Ciccio\AppData\Local\Temp\ccXVDL4Z.ltrans4.ltrans.o
 .text.chSysUnlock.lto_priv.199
                0x080045b0       0x38 C:\Users\Ciccio\AppData\Local\Temp\ccXVDL4Z.ltrans4.ltrans.o
 *fill*         0x080045e8        0x8 
 .text.chThdGetSelfX.lto_priv.191
                0x080045f0        0xc C:\Users\Ciccio\AppData\Local\Temp\ccXVDL4Z.ltrans4.ltrans.o
 *fill*         0x080045fc        0x4 
 .text.chThdGetPriorityX.lto_priv.189
                0x08004600       0x10 C:\Users\Ciccio\AppData\Local\Temp\ccXVDL4Z.ltrans4.ltrans.o
 .text.mtx1_setup.lto_priv.90
                0x08004610       0x10 C:\Users\Ciccio\AppData\Local\Temp\ccXVDL4Z.ltrans4.ltrans.o
                0x08004610                mtx1_setup.lto_priv.90
 .text.thread1.lto_priv.197
                0x08004620       0x28 C:\Users\Ciccio\AppData\Local\Temp\ccXVDL4Z.ltrans4.ltrans.o
 *fill*         0x08004648        0x8 
 .text.mtx1_execute.lto_priv.91
                0x08004650      0x108 C:\Users\Ciccio\AppData\Local\Temp\ccXVDL4Z.ltrans4.ltrans.o
                0x08004650                mtx1_execute.lto_priv.91
 *fill*         0x08004758        0x8 
 .text.mtx4_setup.lto_priv.88
                0x08004760       0x18 C:\Users\Ciccio\AppData\Local\Temp\ccXVDL4Z.ltrans4.ltrans.o
                0x08004760                mtx4_setup.lto_priv.88
 *fill*         0x08004778        0x8 
 .text.thread4a
                0x08004780       0x24 C:\Users\Ciccio\AppData\Local\Temp\ccXVDL4Z.ltrans4.ltrans.o
 *fill*         0x080047a4        0xc 
 .text.thread4b
                0x080047b0       0x24 C:\Users\Ciccio\AppData\Local\Temp\ccXVDL4Z.ltrans4.ltrans.o
 *fill*         0x080047d4        0xc 
 .text.mtx4_execute.lto_priv.89
                0x080047e0      0x2f4 C:\Users\Ciccio\AppData\Local\Temp\ccXVDL4Z.ltrans4.ltrans.o
                0x080047e0                mtx4_execute.lto_priv.89
 *fill*         0x08004ad4        0xc 
 .text.mtx5_setup.lto_priv.86
                0x08004ae0       0x10 C:\Users\Ciccio\AppData\Local\Temp\ccXVDL4Z.ltrans4.ltrans.o
                0x08004ae0                mtx5_setup.lto_priv.86
 .text.mtx5_execute.lto_priv.87
                0x08004af0       0xfc C:\Users\Ciccio\AppData\Local\Temp\ccXVDL4Z.ltrans4.ltrans.o
                0x08004af0                mtx5_execute.lto_priv.87
 *fill*         0x08004bec        0x4 
 .text.mtx6_setup.lto_priv.84
                0x08004bf0       0x18 C:\Users\Ciccio\AppData\Local\Temp\ccXVDL4Z.ltrans4.ltrans.o
                0x08004bf0                mtx6_setup.lto_priv.84
 *fill*         0x08004c08        0x8 
 .text.thread10
                0x08004c10       0x30 C:\Users\Ciccio\AppData\Local\Temp\ccXVDL4Z.ltrans4.ltrans.o
 .text.mtx6_execute.lto_priv.85
                0x08004c40      0x104 C:\Users\Ciccio\AppData\Local\Temp\ccXVDL4Z.ltrans4.ltrans.o
                0x08004c40                mtx6_execute.lto_priv.85
 *fill*         0x08004d44        0xc 
 .text.mtx7_setup.lto_priv.82
                0x08004d50       0x18 C:\Users\Ciccio\AppData\Local\Temp\ccXVDL4Z.ltrans4.ltrans.o
                0x08004d50                mtx7_setup.lto_priv.82
 *fill*         0x08004d68        0x8 
 .text.mtx7_execute.lto_priv.83
                0x08004d70       0xe0 C:\Users\Ciccio\AppData\Local\Temp\ccXVDL4Z.ltrans4.ltrans.o
                0x08004d70                mtx7_execute.lto_priv.83
 .text.mtx8_setup.lto_priv.80
                0x08004e50       0x24 C:\Users\Ciccio\AppData\Local\Temp\ccXVDL4Z.ltrans4.ltrans.o
                0x08004e50                mtx8_setup.lto_priv.80
 *fill*         0x08004e74        0xc 
 .text.thread11
                0x08004e80       0x44 C:\Users\Ciccio\AppData\Local\Temp\ccXVDL4Z.ltrans4.ltrans.o
 *fill*         0x08004ec4        0xc 
 .text.thread12
                0x08004ed0       0x28 C:\Users\Ciccio\AppData\Local\Temp\ccXVDL4Z.ltrans4.ltrans.o
 *fill*         0x08004ef8        0x8 
 .text.mtx8_execute.lto_priv.81
                0x08004f00       0xac C:\Users\Ciccio\AppData\Local\Temp\ccXVDL4Z.ltrans4.ltrans.o
                0x08004f00                mtx8_execute.lto_priv.81
 *fill*         0x08004fac        0x4 
 .text.chThdGetSelfX.lto_priv.192
                0x08004fb0        0xc C:\Users\Ciccio\AppData\Local\Temp\ccXVDL4Z.ltrans4.ltrans.o
 *fill*         0x08004fbc        0x4 
 .text.chThdGetPriorityX.lto_priv.190
                0x08004fc0       0x10 C:\Users\Ciccio\AppData\Local\Temp\ccXVDL4Z.ltrans4.ltrans.o
 .text.chMsgGet
                0x08004fd0       0x10 C:\Users\Ciccio\AppData\Local\Temp\ccXVDL4Z.ltrans4.ltrans.o
 .text.thread   0x08004fe0       0x24 C:\Users\Ciccio\AppData\Local\Temp\ccXVDL4Z.ltrans4.ltrans.o
 *fill*         0x08005004        0xc 
 .text.msg1_execute.lto_priv.79
                0x08005010       0xa8 C:\Users\Ciccio\AppData\Local\Temp\ccXVDL4Z.ltrans4.ltrans.o
                0x08005010                msg1_execute.lto_priv.79
 *fill*         0x080050b8        0x8 
 .text.port_lock.lto_priv.187
                0x080050c0       0x10 C:\Users\Ciccio\AppData\Local\Temp\ccXVDL4Z.ltrans4.ltrans.o
 .text.port_unlock.lto_priv.185
                0x080050d0       0x10 C:\Users\Ciccio\AppData\Local\Temp\ccXVDL4Z.ltrans4.ltrans.o
 .text.chSysLock.lto_priv.177
                0x080050e0       0x10 C:\Users\Ciccio\AppData\Local\Temp\ccXVDL4Z.ltrans4.ltrans.o
                0x080050e0                chSysLock.lto_priv.177
 .text.chSysUnlock.lto_priv.175
                0x080050f0       0x38 C:\Users\Ciccio\AppData\Local\Temp\ccXVDL4Z.ltrans4.ltrans.o
                0x080050f0                chSysUnlock.lto_priv.175
 *fill*         0x08005128        0x8 
 .text.chSemGetCounterI.lto_priv.183
                0x08005130       0x18 C:\Users\Ciccio\AppData\Local\Temp\ccXVDL4Z.ltrans4.ltrans.o
 *fill*         0x08005148        0x8 
 .text.chMBGetFreeCountI.lto_priv.181
                0x08005150       0x20 C:\Users\Ciccio\AppData\Local\Temp\ccXVDL4Z.ltrans4.ltrans.o
                0x08005150                chMBGetFreeCountI.lto_priv.181
 .text.chMBGetUsedCountI.lto_priv.180
                0x08005170       0x20 C:\Users\Ciccio\AppData\Local\Temp\ccXVDL4Z.ltrans4.ltrans.o
                0x08005170                chMBGetUsedCountI.lto_priv.180
 .text.serve_interrupt
                0x08005190      0x13c C:\Users\Ciccio\AppData\Local\Temp\ccXVDL4Z.ltrans5.ltrans.o
 *fill*         0x080052cc        0x4 
 .text.notify2  0x080052d0       0x18 C:\Users\Ciccio\AppData\Local\Temp\ccXVDL4Z.ltrans5.ltrans.o
 *fill*         0x080052e8        0x8 
 .text.VectorD8
                0x080052f0       0x20 C:\Users\Ciccio\AppData\Local\Temp\ccXVDL4Z.ltrans5.ltrans.o
                0x080052f0                VectorD8
 .text.sd_lld_init
                0x08005310       0x20 C:\Users\Ciccio\AppData\Local\Temp\ccXVDL4Z.ltrans5.ltrans.o
                0x08005310                sd_lld_init
 .text.sd_lld_start
                0x08005330       0x50 C:\Users\Ciccio\AppData\Local\Temp\ccXVDL4Z.ltrans5.ltrans.o
                0x08005330                sd_lld_start
 .text.__early_init
                0x08005380        0x8 C:\Users\Ciccio\AppData\Local\Temp\ccXVDL4Z.ltrans5.ltrans.o
                0x08005380                __early_init
 *fill*         0x08005388        0x8 
 .text.boardInit
                0x08005390        0x4 C:\Users\Ciccio\AppData\Local\Temp\ccXVDL4Z.ltrans5.ltrans.o
                0x08005390                boardInit
 *fill*         0x08005394        0xc 
 .text.port_lock.lto_priv.224
                0x080053a0       0x10 C:\Users\Ciccio\AppData\Local\Temp\ccXVDL4Z.ltrans5.ltrans.o
 .text.port_unlock.lto_priv.221
                0x080053b0       0x10 C:\Users\Ciccio\AppData\Local\Temp\ccXVDL4Z.ltrans5.ltrans.o
 .text.st_lld_get_counter.lto_priv.218
                0x080053c0        0xc C:\Users\Ciccio\AppData\Local\Temp\ccXVDL4Z.ltrans5.ltrans.o
 *fill*         0x080053cc        0x4 
 .text.port_timer_get_time.lto_priv.215
                0x080053d0        0xc C:\Users\Ciccio\AppData\Local\Temp\ccXVDL4Z.ltrans5.ltrans.o
 *fill*         0x080053dc        0x4 
 .text.chSysLock.lto_priv.231
                0x080053e0       0x10 C:\Users\Ciccio\AppData\Local\Temp\ccXVDL4Z.ltrans5.ltrans.o
 .text.chSysUnlock.lto_priv.229
                0x080053f0       0x38 C:\Users\Ciccio\AppData\Local\Temp\ccXVDL4Z.ltrans5.ltrans.o
 *fill*         0x08005428        0x8 
 .text.chVTGetSystemTimeX.lto_priv.212
                0x08005430        0xc C:\Users\Ciccio\AppData\Local\Temp\ccXVDL4Z.ltrans5.ltrans.o
 *fill*         0x0800543c        0x4 
 .text.chVTGetSystemTime.lto_priv.227
                0x08005440       0x1c C:\Users\Ciccio\AppData\Local\Temp\ccXVDL4Z.ltrans5.ltrans.o
 *fill*         0x0800545c        0x4 
 .text.chVTIsTimeWithinX
                0x08005460       0x24 C:\Users\Ciccio\AppData\Local\Temp\ccXVDL4Z.ltrans5.ltrans.o
 *fill*         0x08005484        0xc 
 .text.chVTIsSystemTimeWithin
                0x08005490       0x24 C:\Users\Ciccio\AppData\Local\Temp\ccXVDL4Z.ltrans5.ltrans.o
 *fill*         0x080054b4        0xc 
 .text.chVTIsArmedI
                0x080054c0       0x20 C:\Users\Ciccio\AppData\Local\Temp\ccXVDL4Z.ltrans5.ltrans.o
 .text.chVTResetI
                0x080054e0       0x20 C:\Users\Ciccio\AppData\Local\Temp\ccXVDL4Z.ltrans5.ltrans.o
 .text.chVTSetI
                0x08005500       0x24 C:\Users\Ciccio\AppData\Local\Temp\ccXVDL4Z.ltrans5.ltrans.o
 *fill*         0x08005524        0xc 
 .text.chVTSet  0x08005530       0x28 C:\Users\Ciccio\AppData\Local\Temp\ccXVDL4Z.ltrans5.ltrans.o
 *fill*         0x08005558        0x8 
 .text.test_printn
                0x08005560       0x90 C:\Users\Ciccio\AppData\Local\Temp\ccXVDL4Z.ltrans5.ltrans.o
                0x08005560                test_printn
 .text.test_print
                0x080055f0       0x34 C:\Users\Ciccio\AppData\Local\Temp\ccXVDL4Z.ltrans5.ltrans.o
                0x080055f0                test_print
 *fill*         0x08005624        0xc 
 .text.test_println
                0x08005630       0x30 C:\Users\Ciccio\AppData\Local\Temp\ccXVDL4Z.ltrans5.ltrans.o
                0x08005630                test_println
 .text.clear_tokens
                0x08005660       0x10 C:\Users\Ciccio\AppData\Local\Temp\ccXVDL4Z.ltrans5.ltrans.o
 .text.print_tokens
                0x08005670       0x40 C:\Users\Ciccio\AppData\Local\Temp\ccXVDL4Z.ltrans5.ltrans.o
 .text.test_emit_token
                0x080056b0       0x2c C:\Users\Ciccio\AppData\Local\Temp\ccXVDL4Z.ltrans5.ltrans.o
                0x080056b0                test_emit_token
 *fill*         0x080056dc        0x4 
 .text._test_fail
                0x080056e0       0x2c C:\Users\Ciccio\AppData\Local\Temp\ccXVDL4Z.ltrans5.ltrans.o
 *fill*         0x0800570c        0x4 
 .text._test_assert
                0x08005710       0x30 C:\Users\Ciccio\AppData\Local\Temp\ccXVDL4Z.ltrans5.ltrans.o
                0x08005710                _test_assert
 .text._test_assert_sequence
                0x08005740       0x60 C:\Users\Ciccio\AppData\Local\Temp\ccXVDL4Z.ltrans5.ltrans.o
                0x08005740                _test_assert_sequence
 .text._test_assert_time_window
                0x080057a0       0x28 C:\Users\Ciccio\AppData\Local\Temp\ccXVDL4Z.ltrans5.ltrans.o
                0x080057a0                _test_assert_time_window
 *fill*         0x080057c8        0x8 
 .text.test_terminate_threads
                0x080057d0       0x3c C:\Users\Ciccio\AppData\Local\Temp\ccXVDL4Z.ltrans5.ltrans.o
                0x080057d0                test_terminate_threads
 *fill*         0x0800580c        0x4 
 .text.test_wait_threads
                0x08005810       0x44 C:\Users\Ciccio\AppData\Local\Temp\ccXVDL4Z.ltrans5.ltrans.o
                0x08005810                test_wait_threads
 *fill*         0x08005854        0xc 
 .text.test_wait_tick
                0x08005860       0x14 C:\Users\Ciccio\AppData\Local\Temp\ccXVDL4Z.ltrans5.ltrans.o
                0x08005860                test_wait_tick
 *fill*         0x08005874        0xc 
 .text.tmr      0x08005880       0x14 C:\Users\Ciccio\AppData\Local\Temp\ccXVDL4Z.ltrans5.ltrans.o
 *fill*         0x08005894        0xc 
 .text.test_start_timer
                0x080058a0       0x48 C:\Users\Ciccio\AppData\Local\Temp\ccXVDL4Z.ltrans5.ltrans.o
                0x080058a0                test_start_timer
 *fill*         0x080058e8        0x8 
 .text.execute_test
                0x080058f0       0x60 C:\Users\Ciccio\AppData\Local\Temp\ccXVDL4Z.ltrans5.ltrans.o
 .text.print_line
                0x08005950       0x4c C:\Users\Ciccio\AppData\Local\Temp\ccXVDL4Z.ltrans5.ltrans.o
 *fill*         0x0800599c        0x4 
 .text.TestThread
                0x080059a0      0x210 C:\Users\Ciccio\AppData\Local\Temp\ccXVDL4Z.ltrans5.ltrans.o
                0x080059a0                TestThread
 .text.port_lock.lto_priv.225
                0x08005bb0       0x10 C:\Users\Ciccio\AppData\Local\Temp\ccXVDL4Z.ltrans5.ltrans.o
 .text.port_unlock.lto_priv.222
                0x08005bc0       0x10 C:\Users\Ciccio\AppData\Local\Temp\ccXVDL4Z.ltrans5.ltrans.o
 .text.st_lld_get_counter.lto_priv.219
                0x08005bd0        0xc C:\Users\Ciccio\AppData\Local\Temp\ccXVDL4Z.ltrans5.ltrans.o
 *fill*         0x08005bdc        0x4 
 .text.port_timer_get_time.lto_priv.216
                0x08005be0        0xc C:\Users\Ciccio\AppData\Local\Temp\ccXVDL4Z.ltrans5.ltrans.o
 *fill*         0x08005bec        0x4 
 .text.chSysLock.lto_priv.232
                0x08005bf0       0x10 C:\Users\Ciccio\AppData\Local\Temp\ccXVDL4Z.ltrans5.ltrans.o
 .text.chSysUnlock.lto_priv.230
                0x08005c00       0x38 C:\Users\Ciccio\AppData\Local\Temp\ccXVDL4Z.ltrans5.ltrans.o
 *fill*         0x08005c38        0x8 
 .text.chVTGetSystemTimeX.lto_priv.213
                0x08005c40        0xc C:\Users\Ciccio\AppData\Local\Temp\ccXVDL4Z.ltrans5.ltrans.o
 *fill*         0x08005c4c        0x4 
 .text.chVTGetSystemTime.lto_priv.228
                0x08005c50       0x1c C:\Users\Ciccio\AppData\Local\Temp\ccXVDL4Z.ltrans5.ltrans.o
 *fill*         0x08005c6c        0x4 
 .text.chThdGetSelfX.lto_priv.210
                0x08005c70        0xc C:\Users\Ciccio\AppData\Local\Temp\ccXVDL4Z.ltrans5.ltrans.o
 *fill*         0x08005c7c        0x4 
 .text.chThdGetPriorityX
                0x08005c80       0x10 C:\Users\Ciccio\AppData\Local\Temp\ccXVDL4Z.ltrans5.ltrans.o
 .text.thread   0x08005c90       0x18 C:\Users\Ciccio\AppData\Local\Temp\ccXVDL4Z.ltrans5.ltrans.o
 *fill*         0x08005ca8        0x8 
 .text.thd1_execute.lto_priv.102
                0x08005cb0       0xe4 C:\Users\Ciccio\AppData\Local\Temp\ccXVDL4Z.ltrans5.ltrans.o
                0x08005cb0                thd1_execute.lto_priv.102
 *fill*         0x08005d94        0xc 
 .text.thd2_execute.lto_priv.101
                0x08005da0       0xf4 C:\Users\Ciccio\AppData\Local\Temp\ccXVDL4Z.ltrans5.ltrans.o
                0x08005da0                thd2_execute.lto_priv.101
 *fill*         0x08005e94        0xc 
 .text.thd3_execute.lto_priv.100
                0x08005ea0      0x1dc C:\Users\Ciccio\AppData\Local\Temp\ccXVDL4Z.ltrans5.ltrans.o
                0x08005ea0                thd3_execute.lto_priv.100
 *fill*         0x0800607c        0x4 
 .text.thd4_execute.lto_priv.99
                0x08006080       0xb0 C:\Users\Ciccio\AppData\Local\Temp\ccXVDL4Z.ltrans5.ltrans.o
                0x08006080                thd4_execute.lto_priv.99
 .text.port_lock.lto_priv.226
                0x08006130       0x10 C:\Users\Ciccio\AppData\Local\Temp\ccXVDL4Z.ltrans5.ltrans.o
 .text.port_unlock.lto_priv.223
                0x08006140       0x10 C:\Users\Ciccio\AppData\Local\Temp\ccXVDL4Z.ltrans5.ltrans.o
 .text.st_lld_get_counter.lto_priv.220
                0x08006150        0xc C:\Users\Ciccio\AppData\Local\Temp\ccXVDL4Z.ltrans5.ltrans.o
 *fill*         0x0800615c        0x4 
 .text.port_timer_get_time.lto_priv.217
                0x08006160        0xc C:\Users\Ciccio\AppData\Local\Temp\ccXVDL4Z.ltrans5.ltrans.o
 *fill*         0x0800616c        0x4 
 .text.queue_isempty.lto_priv.202
                0x08006170       0x1c C:\Users\Ciccio\AppData\Local\Temp\ccXVDL4Z.ltrans5.ltrans.o
                0x08006170                queue_isempty.lto_priv.202
 *fill*         0x0800618c        0x4 
 .text.chSysLock.lto_priv.200
                0x08006190       0x10 C:\Users\Ciccio\AppData\Local\Temp\ccXVDL4Z.ltrans5.ltrans.o
                0x08006190                chSysLock.lto_priv.200
 .text.chSysUnlock.lto_priv.198
                0x080061a0       0x38 C:\Users\Ciccio\AppData\Local\Temp\ccXVDL4Z.ltrans5.ltrans.o
                0x080061a0                chSysUnlock.lto_priv.198
 *fill*         0x080061d8        0x8 
 .text.chVTGetSystemTimeX.lto_priv.214
                0x080061e0        0xc C:\Users\Ciccio\AppData\Local\Temp\ccXVDL4Z.ltrans5.ltrans.o
 *fill*         0x080061ec        0x4 
 .text.chVTGetSystemTime.lto_priv.209
                0x080061f0       0x1c C:\Users\Ciccio\AppData\Local\Temp\ccXVDL4Z.ltrans5.ltrans.o
                0x080061f0                chVTGetSystemTime.lto_priv.209
 *fill*         0x0800620c        0x4 
 .text.chThdGetSelfX.lto_priv.211
                0x08006210        0xc C:\Users\Ciccio\AppData\Local\Temp\ccXVDL4Z.ltrans5.ltrans.o
 *fill*         0x0800621c        0x4 
 .text.chThdGetPriorityX.lto_priv.188
                0x08006220       0x10 C:\Users\Ciccio\AppData\Local\Temp\ccXVDL4Z.ltrans5.ltrans.o
                0x08006220                chThdGetPriorityX.lto_priv.188
 .text.chSemGetCounterI.lto_priv.182
                0x08006230       0x18 C:\Users\Ciccio\AppData\Local\Temp\ccXVDL4Z.ltrans5.ltrans.o
                0x08006230                chSemGetCounterI.lto_priv.182
 *fill*         0x08006248        0x8 
 .text.chBSemObjectInit.lto_priv.208
                0x08006250       0x2c C:\Users\Ciccio\AppData\Local\Temp\ccXVDL4Z.ltrans5.ltrans.o
                0x08006250                chBSemObjectInit.lto_priv.208
 *fill*         0x0800627c        0x4 
 .text.chBSemWait.lto_priv.206
                0x08006280       0x18 C:\Users\Ciccio\AppData\Local\Temp\ccXVDL4Z.ltrans5.ltrans.o
                0x08006280                chBSemWait.lto_priv.206
 *fill*         0x08006298        0x8 
 .text.chBSemReset.lto_priv.207
                0x080062a0       0x2c C:\Users\Ciccio\AppData\Local\Temp\ccXVDL4Z.ltrans5.ltrans.o
                0x080062a0                chBSemReset.lto_priv.207
 *fill*         0x080062cc        0x4 
 .text.chBSemSignalI
                0x080062d0       0x20 C:\Users\Ciccio\AppData\Local\Temp\ccXVDL4Z.ltrans5.ltrans.o
 .text.chBSemSignal.lto_priv.205
                0x080062f0       0x20 C:\Users\Ciccio\AppData\Local\Temp\ccXVDL4Z.ltrans5.ltrans.o
                0x080062f0                chBSemSignal.lto_priv.205
 .text.chBSemGetStateI.lto_priv.204
                0x08006310       0x20 C:\Users\Ciccio\AppData\Local\Temp\ccXVDL4Z.ltrans5.ltrans.o
                0x08006310                chBSemGetStateI.lto_priv.204
 .text.sem1_setup.lto_priv.97
                0x08006330       0x10 C:\Users\Ciccio\AppData\Local\Temp\ccXVDL4Z.ltrans5.ltrans.o
                0x08006330                sem1_setup.lto_priv.97
 .text.thread1.lto_priv.196
                0x08006340       0x20 C:\Users\Ciccio\AppData\Local\Temp\ccXVDL4Z.ltrans5.ltrans.o
                0x08006340                thread1.lto_priv.196
 .text.chSysLockFromISR.lto_priv.251
                0x08006360       0x10 C:\Users\Ciccio\AppData\Local\Temp\ccXVDL4Z.ltrans6.ltrans.o
 .text.chSysUnlockFromISR.lto_priv.248
                0x08006370       0x10 C:\Users\Ciccio\AppData\Local\Temp\ccXVDL4Z.ltrans6.ltrans.o
 .text.osalSysLockFromISR.lto_priv.268
                0x08006380        0x8 C:\Users\Ciccio\AppData\Local\Temp\ccXVDL4Z.ltrans6.ltrans.o
 *fill*         0x08006388        0x8 
 .text.osalSysUnlockFromISR.lto_priv.266
                0x08006390        0x8 C:\Users\Ciccio\AppData\Local\Temp\ccXVDL4Z.ltrans6.ltrans.o
 *fill*         0x08006398        0x8 
 .text.osalOsTimerHandlerI
                0x080063a0        0x8 C:\Users\Ciccio\AppData\Local\Temp\ccXVDL4Z.ltrans6.ltrans.o
 *fill*         0x080063a8        0x8 
 .text.VectorB0
                0x080063b0       0x38 C:\Users\Ciccio\AppData\Local\Temp\ccXVDL4Z.ltrans6.ltrans.o
                0x080063b0                VectorB0
 *fill*         0x080063e8        0x8 
 .text.st_lld_init
                0x080063f0       0x70 C:\Users\Ciccio\AppData\Local\Temp\ccXVDL4Z.ltrans6.ltrans.o
                0x080063f0                st_lld_init
 .text.initgpio
                0x08006460       0x44 C:\Users\Ciccio\AppData\Local\Temp\ccXVDL4Z.ltrans6.ltrans.o
 *fill*         0x080064a4        0xc 
 .text._pal_lld_init
                0x080064b0       0x88 C:\Users\Ciccio\AppData\Local\Temp\ccXVDL4Z.ltrans6.ltrans.o
                0x080064b0                _pal_lld_init
 *fill*         0x08006538        0x8 
 .text._pal_lld_setgroupmode
                0x08006540      0x168 C:\Users\Ciccio\AppData\Local\Temp\ccXVDL4Z.ltrans6.ltrans.o
                0x08006540                _pal_lld_setgroupmode
 *fill*         0x080066a8        0x8 
 .text.port_lock.lto_priv.262
                0x080066b0       0x10 C:\Users\Ciccio\AppData\Local\Temp\ccXVDL4Z.ltrans6.ltrans.o
 .text.port_unlock.lto_priv.260
                0x080066c0       0x10 C:\Users\Ciccio\AppData\Local\Temp\ccXVDL4Z.ltrans6.ltrans.o
 .text.port_lock_from_isr.lto_priv.258
                0x080066d0        0x8 C:\Users\Ciccio\AppData\Local\Temp\ccXVDL4Z.ltrans6.ltrans.o
 *fill*         0x080066d8        0x8 
 .text.port_unlock_from_isr.lto_priv.255
                0x080066e0        0x8 C:\Users\Ciccio\AppData\Local\Temp\ccXVDL4Z.ltrans6.ltrans.o
 *fill*         0x080066e8        0x8 
 .text.st_lld_get_counter
                0x080066f0        0xc C:\Users\Ciccio\AppData\Local\Temp\ccXVDL4Z.ltrans6.ltrans.o
 *fill*         0x080066fc        0x4 
 .text.port_timer_get_time
                0x08006700        0xc C:\Users\Ciccio\AppData\Local\Temp\ccXVDL4Z.ltrans6.ltrans.o
 *fill*         0x0800670c        0x4 
 .text.chSysLock
                0x08006710       0x10 C:\Users\Ciccio\AppData\Local\Temp\ccXVDL4Z.ltrans6.ltrans.o
 .text.chSysUnlock
                0x08006720       0x38 C:\Users\Ciccio\AppData\Local\Temp\ccXVDL4Z.ltrans6.ltrans.o
 *fill*         0x08006758        0x8 
 .text.chSysLockFromISR.lto_priv.252
                0x08006760       0x10 C:\Users\Ciccio\AppData\Local\Temp\ccXVDL4Z.ltrans6.ltrans.o
 .text.chSysUnlockFromISR.lto_priv.249
                0x08006770       0x10 C:\Users\Ciccio\AppData\Local\Temp\ccXVDL4Z.ltrans6.ltrans.o
 .text.chVTGetSystemTimeX
                0x08006780        0xc C:\Users\Ciccio\AppData\Local\Temp\ccXVDL4Z.ltrans6.ltrans.o
 *fill*         0x0800678c        0x4 
 .text.chVTIsTimeWithinX
                0x08006790       0x24 C:\Users\Ciccio\AppData\Local\Temp\ccXVDL4Z.ltrans6.ltrans.o
 *fill*         0x080067b4        0xc 
 .text.osalSysHalt
                0x080067c0       0x14 C:\Users\Ciccio\AppData\Local\Temp\ccXVDL4Z.ltrans6.ltrans.o
 *fill*         0x080067d4        0xc 
 .text.osalSysLock
                0x080067e0        0x8 C:\Users\Ciccio\AppData\Local\Temp\ccXVDL4Z.ltrans6.ltrans.o
 *fill*         0x080067e8        0x8 
 .text.osalSysUnlock
                0x080067f0        0x8 C:\Users\Ciccio\AppData\Local\Temp\ccXVDL4Z.ltrans6.ltrans.o
 *fill*         0x080067f8        0x8 
 .text.osalSysLockFromISR.lto_priv.269
                0x08006800        0x8 C:\Users\Ciccio\AppData\Local\Temp\ccXVDL4Z.ltrans6.ltrans.o
 *fill*         0x08006808        0x8 
 .text.osalSysUnlockFromISR.lto_priv.267
                0x08006810        0x8 C:\Users\Ciccio\AppData\Local\Temp\ccXVDL4Z.ltrans6.ltrans.o
 *fill*         0x08006818        0x8 
 .text.osalOsGetSystemTimeX
                0x08006820        0xc C:\Users\Ciccio\AppData\Local\Temp\ccXVDL4Z.ltrans6.ltrans.o
 *fill*         0x0800682c        0x4 
 .text.osalOsIsTimeWithinX
                0x08006830       0x20 C:\Users\Ciccio\AppData\Local\Temp\ccXVDL4Z.ltrans6.ltrans.o
 .text.osalThreadSuspendTimeoutS
                0x08006850       0x1c C:\Users\Ciccio\AppData\Local\Temp\ccXVDL4Z.ltrans6.ltrans.o
 *fill*         0x0800686c        0x4 
 .text.osalThreadResumeI
                0x08006870       0x18 C:\Users\Ciccio\AppData\Local\Temp\ccXVDL4Z.ltrans6.ltrans.o
 *fill*         0x08006888        0x8 
 .text.i2c_lld_set_clock
                0x08006890      0x1d0 C:\Users\Ciccio\AppData\Local\Temp\ccXVDL4Z.ltrans6.ltrans.o
 .text.i2c_lld_set_opmode
                0x08006a60       0x6c C:\Users\Ciccio\AppData\Local\Temp\ccXVDL4Z.ltrans6.ltrans.o
 *fill*         0x08006acc        0x4 
 .text.i2c_lld_serve_event_interrupt
                0x08006ad0      0x184 C:\Users\Ciccio\AppData\Local\Temp\ccXVDL4Z.ltrans6.ltrans.o
 *fill*         0x08006c54        0xc 
 .text.i2c_lld_serve_rx_end_irq
                0x08006c60       0x98 C:\Users\Ciccio\AppData\Local\Temp\ccXVDL4Z.ltrans6.ltrans.o
 *fill*         0x08006cf8        0x8 
 .text.i2c_lld_serve_tx_end_irq
                0x08006d00       0x6c C:\Users\Ciccio\AppData\Local\Temp\ccXVDL4Z.ltrans6.ltrans.o
 *fill*         0x08006d6c        0x4 
 .text.i2c_lld_serve_error_interrupt
                0x08006d70      0x16c C:\Users\Ciccio\AppData\Local\Temp\ccXVDL4Z.ltrans6.ltrans.o
 *fill*         0x08006edc        0x4 
 .text.VectorBC
                0x08006ee0       0x20 C:\Users\Ciccio\AppData\Local\Temp\ccXVDL4Z.ltrans6.ltrans.o
                0x08006ee0                VectorBC
 .text.VectorC0
                0x08006f00       0x44 C:\Users\Ciccio\AppData\Local\Temp\ccXVDL4Z.ltrans6.ltrans.o
                0x08006f00                VectorC0
 *fill*         0x08006f44        0xc 
 .text.VectorC4
                0x08006f50       0x20 C:\Users\Ciccio\AppData\Local\Temp\ccXVDL4Z.ltrans6.ltrans.o
                0x08006f50                VectorC4
 .text.VectorC8
                0x08006f70       0x44 C:\Users\Ciccio\AppData\Local\Temp\ccXVDL4Z.ltrans6.ltrans.o
                0x08006f70                VectorC8
 *fill*         0x08006fb4        0xc 
 .text.Vector160
                0x08006fc0       0x20 C:\Users\Ciccio\AppData\Local\Temp\ccXVDL4Z.ltrans6.ltrans.o
                0x08006fc0                Vector160
 .text.Vector164
                0x08006fe0       0x44 C:\Users\Ciccio\AppData\Local\Temp\ccXVDL4Z.ltrans6.ltrans.o
                0x08006fe0                Vector164
 *fill*         0x08007024        0xc 
 .text.i2c_lld_init
                0x08007030       0x8c C:\Users\Ciccio\AppData\Local\Temp\ccXVDL4Z.ltrans6.ltrans.o
                0x08007030                i2c_lld_init
 *fill*         0x080070bc        0x4 
 .text.i2c_lld_start
                0x080070c0      0x268 C:\Users\Ciccio\AppData\Local\Temp\ccXVDL4Z.ltrans6.ltrans.o
                0x080070c0                i2c_lld_start
 *fill*         0x08007328        0x8 
 .text.i2c_lld_master_transmit_timeout
                0x08007330       0xec C:\Users\Ciccio\AppData\Local\Temp\ccXVDL4Z.ltrans6.ltrans.o
                0x08007330                i2c_lld_master_transmit_timeout
 *fill*         0x0800741c        0x4 
 .text.port_lock.lto_priv.263
                0x08007420       0x10 C:\Users\Ciccio\AppData\Local\Temp\ccXVDL4Z.ltrans6.ltrans.o
 .text.port_unlock.lto_priv.261
                0x08007430       0x10 C:\Users\Ciccio\AppData\Local\Temp\ccXVDL4Z.ltrans6.ltrans.o
 .text.port_lock_from_isr.lto_priv.259
                0x08007440        0x8 C:\Users\Ciccio\AppData\Local\Temp\ccXVDL4Z.ltrans6.ltrans.o
 *fill*         0x08007448        0x8 
 .text.port_unlock_from_isr.lto_priv.256
                0x08007450        0x8 C:\Users\Ciccio\AppData\Local\Temp\ccXVDL4Z.ltrans6.ltrans.o
 *fill*         0x08007458        0x8 
 .text.chSysLockFromISR.lto_priv.253
                0x08007460       0x10 C:\Users\Ciccio\AppData\Local\Temp\ccXVDL4Z.ltrans6.ltrans.o
 .text.chSysUnlockFromISR.lto_priv.250
                0x08007470       0x10 C:\Users\Ciccio\AppData\Local\Temp\ccXVDL4Z.ltrans6.ltrans.o
 .text.chOQIsEmptyI.lto_priv.245
                0x08007480       0x34 C:\Users\Ciccio\AppData\Local\Temp\ccXVDL4Z.ltrans6.ltrans.o
                0x08007480                chOQIsEmptyI.lto_priv.245
 *fill*         0x080074b4        0xc 
 .text.osalSysLockFromISR.lto_priv.246
                0x080074c0        0x8 C:\Users\Ciccio\AppData\Local\Temp\ccXVDL4Z.ltrans6.ltrans.o
                0x080074c0                osalSysLockFromISR.lto_priv.246
 *fill*         0x080074c8        0x8 
 .text.osalSysUnlockFromISR.lto_priv.243
                0x080074d0        0x8 C:\Users\Ciccio\AppData\Local\Temp\ccXVDL4Z.ltrans6.ltrans.o
                0x080074d0                osalSysUnlockFromISR.lto_priv.243
 *fill*         0x080074d8        0x8 
 .text.osalEventBroadcastFlagsI.lto_priv.244
                0x080074e0       0x18 C:\Users\Ciccio\AppData\Local\Temp\ccXVDL4Z.ltrans6.ltrans.o
                0x080074e0                osalEventBroadcastFlagsI.lto_priv.244
 *fill*         0x080074f8        0x8 
 .text.usart_init.lto_priv.242
                0x08007500       0x94 C:\Users\Ciccio\AppData\Local\Temp\ccXVDL4Z.ltrans6.ltrans.o
                0x08007500                usart_init.lto_priv.242
 *fill*         0x08007594        0xc 
 .text.set_error.lto_priv.247
                0x080075a0       0x74 C:\Users\Ciccio\AppData\Local\Temp\ccXVDL4Z.ltrans6.ltrans.o
                0x080075a0                set_error.lto_priv.247
 *fill*         0x08007614        0xc 
 .text.port_lock.lto_priv.273
                0x08007620       0x10 C:\Users\Ciccio\AppData\Local\Temp\ccXVDL4Z.ltrans7.ltrans.o
 .text.port_unlock.lto_priv.270
                0x08007630       0x10 C:\Users\Ciccio\AppData\Local\Temp\ccXVDL4Z.ltrans7.ltrans.o
 .text.chSysLock.lto_priv.293
                0x08007640       0x10 C:\Users\Ciccio\AppData\Local\Temp\ccXVDL4Z.ltrans7.ltrans.o
 .text.chSysUnlock.lto_priv.291
                0x08007650       0x38 C:\Users\Ciccio\AppData\Local\Temp\ccXVDL4Z.ltrans7.ltrans.o
 *fill*         0x08007688        0x8 
 .text.osalSysLock.lto_priv.289
                0x08007690        0x8 C:\Users\Ciccio\AppData\Local\Temp\ccXVDL4Z.ltrans7.ltrans.o
 *fill*         0x08007698        0x8 
 .text.osalSysUnlock.lto_priv.286
                0x080076a0        0x8 C:\Users\Ciccio\AppData\Local\Temp\ccXVDL4Z.ltrans7.ltrans.o
 *fill*         0x080076a8        0x8 
 .text.osalMutexObjectInit
                0x080076b0       0x14 C:\Users\Ciccio\AppData\Local\Temp\ccXVDL4Z.ltrans7.ltrans.o
 *fill*         0x080076c4        0xc 
 .text.osalMutexLock
                0x080076d0       0x14 C:\Users\Ciccio\AppData\Local\Temp\ccXVDL4Z.ltrans7.ltrans.o
 *fill*         0x080076e4        0xc 
 .text.osalMutexUnlock
                0x080076f0       0x14 C:\Users\Ciccio\AppData\Local\Temp\ccXVDL4Z.ltrans7.ltrans.o
 *fill*         0x08007704        0xc 
 .text.i2cInit  0x08007710        0x8 C:\Users\Ciccio\AppData\Local\Temp\ccXVDL4Z.ltrans7.ltrans.o
                0x08007710                i2cInit
 *fill*         0x08007718        0x8 
 .text.i2cObjectInit
                0x08007720       0x24 C:\Users\Ciccio\AppData\Local\Temp\ccXVDL4Z.ltrans7.ltrans.o
                0x08007720                i2cObjectInit
 *fill*         0x08007744        0xc 
 .text.i2cStart
                0x08007750       0x5c C:\Users\Ciccio\AppData\Local\Temp\ccXVDL4Z.ltrans7.ltrans.o
                0x08007750                i2cStart
 *fill*         0x080077ac        0x4 
 .text.i2cMasterTransmitTimeout
                0x080077b0       0xac C:\Users\Ciccio\AppData\Local\Temp\ccXVDL4Z.ltrans7.ltrans.o
                0x080077b0                i2cMasterTransmitTimeout
 *fill*         0x0800785c        0x4 
 .text.i2cAcquireBus
                0x08007860       0x28 C:\Users\Ciccio\AppData\Local\Temp\ccXVDL4Z.ltrans7.ltrans.o
                0x08007860                i2cAcquireBus
 *fill*         0x08007888        0x8 
 .text.i2cReleaseBus
                0x08007890       0x28 C:\Users\Ciccio\AppData\Local\Temp\ccXVDL4Z.ltrans7.ltrans.o
                0x08007890                i2cReleaseBus
 *fill*         0x080078b8        0x8 
 .text.port_lock.lto_priv.274
                0x080078c0       0x10 C:\Users\Ciccio\AppData\Local\Temp\ccXVDL4Z.ltrans7.ltrans.o
 .text.port_unlock.lto_priv.271
                0x080078d0       0x10 C:\Users\Ciccio\AppData\Local\Temp\ccXVDL4Z.ltrans7.ltrans.o
 .text.chSysLock.lto_priv.294
                0x080078e0       0x10 C:\Users\Ciccio\AppData\Local\Temp\ccXVDL4Z.ltrans7.ltrans.o
 .text.chSysUnlock.lto_priv.292
                0x080078f0       0x38 C:\Users\Ciccio\AppData\Local\Temp\ccXVDL4Z.ltrans7.ltrans.o
 *fill*         0x08007928        0x8 
 .text.chEvtObjectInit
                0x08007930       0x10 C:\Users\Ciccio\AppData\Local\Temp\ccXVDL4Z.ltrans7.ltrans.o
 .text.chIQIsEmptyI
                0x08007940       0x20 C:\Users\Ciccio\AppData\Local\Temp\ccXVDL4Z.ltrans7.ltrans.o
 .text.osalSysLock.lto_priv.290
                0x08007960        0x8 C:\Users\Ciccio\AppData\Local\Temp\ccXVDL4Z.ltrans7.ltrans.o
 *fill*         0x08007968        0x8 
 .text.osalSysUnlock.lto_priv.287
                0x08007970        0x8 C:\Users\Ciccio\AppData\Local\Temp\ccXVDL4Z.ltrans7.ltrans.o
 *fill*         0x08007978        0x8 
 .text.osalEventObjectInit
                0x08007980       0x14 C:\Users\Ciccio\AppData\Local\Temp\ccXVDL4Z.ltrans7.ltrans.o
 *fill*         0x08007994        0xc 
 .text.osalEventBroadcastFlagsI
                0x080079a0       0x18 C:\Users\Ciccio\AppData\Local\Temp\ccXVDL4Z.ltrans7.ltrans.o
 *fill*         0x080079b8        0x8 
 .text.write.lto_priv.103
                0x080079c0       0x28 C:\Users\Ciccio\AppData\Local\Temp\ccXVDL4Z.ltrans7.ltrans.o
                0x080079c0                write.lto_priv.103
 *fill*         0x080079e8        0x8 
 .text.read.lto_priv.104
                0x080079f0       0x28 C:\Users\Ciccio\AppData\Local\Temp\ccXVDL4Z.ltrans7.ltrans.o
                0x080079f0                read.lto_priv.104
 *fill*         0x08007a18        0x8 
 .text.put.lto_priv.4
                0x08007a20       0x2c C:\Users\Ciccio\AppData\Local\Temp\ccXVDL4Z.ltrans7.ltrans.o
                0x08007a20                put.lto_priv.4
 *fill*         0x08007a4c        0x4 
 .text.get.lto_priv.2
                0x08007a50       0x20 C:\Users\Ciccio\AppData\Local\Temp\ccXVDL4Z.ltrans7.ltrans.o
                0x08007a50                get.lto_priv.2
 .text.putt.lto_priv.105
                0x08007a70       0x2c C:\Users\Ciccio\AppData\Local\Temp\ccXVDL4Z.ltrans7.ltrans.o
                0x08007a70                putt.lto_priv.105
 *fill*         0x08007a9c        0x4 
 .text.gett.lto_priv.106
                0x08007aa0       0x20 C:\Users\Ciccio\AppData\Local\Temp\ccXVDL4Z.ltrans7.ltrans.o
                0x08007aa0                gett.lto_priv.106
 .text.writet.lto_priv.107
                0x08007ac0       0x28 C:\Users\Ciccio\AppData\Local\Temp\ccXVDL4Z.ltrans7.ltrans.o
                0x08007ac0                writet.lto_priv.107
 *fill*         0x08007ae8        0x8 
 .text.readt.lto_priv.108
                0x08007af0       0x28 C:\Users\Ciccio\AppData\Local\Temp\ccXVDL4Z.ltrans7.ltrans.o
                0x08007af0                readt.lto_priv.108
 *fill*         0x08007b18        0x8 
 .text.sdInit   0x08007b20        0x8 C:\Users\Ciccio\AppData\Local\Temp\ccXVDL4Z.ltrans7.ltrans.o
                0x08007b20                sdInit
 *fill*         0x08007b28        0x8 
 .text.sdObjectInit
                0x08007b30       0x64 C:\Users\Ciccio\AppData\Local\Temp\ccXVDL4Z.ltrans7.ltrans.o
                0x08007b30                sdObjectInit
 *fill*         0x08007b94        0xc 
 .text.sdStart  0x08007ba0       0x4c C:\Users\Ciccio\AppData\Local\Temp\ccXVDL4Z.ltrans7.ltrans.o
                0x08007ba0                sdStart
 *fill*         0x08007bec        0x4 
 .text.sdIncomingDataI
                0x08007bf0       0x68 C:\Users\Ciccio\AppData\Local\Temp\ccXVDL4Z.ltrans7.ltrans.o
                0x08007bf0                sdIncomingDataI
 *fill*         0x08007c58        0x8 
 .text.nvicEnableVector
                0x08007c60       0x54 C:\Users\Ciccio\AppData\Local\Temp\ccXVDL4Z.ltrans7.ltrans.o
                0x08007c60                nvicEnableVector
 *fill*         0x08007cb4        0xc 
 .text.hal_lld_backup_domain_init
                0x08007cc0       0x40 C:\Users\Ciccio\AppData\Local\Temp\ccXVDL4Z.ltrans7.ltrans.o
 .text.hal_lld_init
                0x08007d00       0x64 C:\Users\Ciccio\AppData\Local\Temp\ccXVDL4Z.ltrans7.ltrans.o
                0x08007d00                hal_lld_init
 *fill*         0x08007d64        0xc 
 .text.stm32_clock_init
                0x08007d70       0xf0 C:\Users\Ciccio\AppData\Local\Temp\ccXVDL4Z.ltrans7.ltrans.o
                0x08007d70                stm32_clock_init
 .text.Vector6C
                0x08007e60       0x48 C:\Users\Ciccio\AppData\Local\Temp\ccXVDL4Z.ltrans7.ltrans.o
                0x08007e60                Vector6C
 *fill*         0x08007ea8        0x8 
 .text.Vector70
                0x08007eb0       0x4c C:\Users\Ciccio\AppData\Local\Temp\ccXVDL4Z.ltrans7.ltrans.o
                0x08007eb0                Vector70
 *fill*         0x08007efc        0x4 
 .text.Vector74
                0x08007f00       0x4c C:\Users\Ciccio\AppData\Local\Temp\ccXVDL4Z.ltrans7.ltrans.o
                0x08007f00                Vector74
 *fill*         0x08007f4c        0x4 
 .text.Vector78
                0x08007f50       0x4c C:\Users\Ciccio\AppData\Local\Temp\ccXVDL4Z.ltrans7.ltrans.o
                0x08007f50                Vector78
 *fill*         0x08007f9c        0x4 
 .text.Vector7C
                0x08007fa0       0x48 C:\Users\Ciccio\AppData\Local\Temp\ccXVDL4Z.ltrans7.ltrans.o
                0x08007fa0                Vector7C
 *fill*         0x08007fe8        0x8 
 .text.Vector80
                0x08007ff0       0x4c C:\Users\Ciccio\AppData\Local\Temp\ccXVDL4Z.ltrans7.ltrans.o
                0x08007ff0                Vector80
 *fill*         0x0800803c        0x4 
 .text.Vector84
                0x08008040       0x4c C:\Users\Ciccio\AppData\Local\Temp\ccXVDL4Z.ltrans7.ltrans.o
                0x08008040                Vector84
 *fill*         0x0800808c        0x4 
 .text.VectorFC
                0x08008090       0x4c C:\Users\Ciccio\AppData\Local\Temp\ccXVDL4Z.ltrans7.ltrans.o
                0x08008090                VectorFC
 *fill*         0x080080dc        0x4 
 .text.Vector120
                0x080080e0       0x48 C:\Users\Ciccio\AppData\Local\Temp\ccXVDL4Z.ltrans7.ltrans.o
                0x080080e0                Vector120
 *fill*         0x08008128        0x8 
 .text.Vector124
                0x08008130       0x4c C:\Users\Ciccio\AppData\Local\Temp\ccXVDL4Z.ltrans7.ltrans.o
                0x08008130                Vector124
 *fill*         0x0800817c        0x4 
 .text.Vector128
                0x08008180       0x4c C:\Users\Ciccio\AppData\Local\Temp\ccXVDL4Z.ltrans7.ltrans.o
                0x08008180                Vector128
 *fill*         0x080081cc        0x4 
 .text.Vector12C
                0x080081d0       0x4c C:\Users\Ciccio\AppData\Local\Temp\ccXVDL4Z.ltrans7.ltrans.o
                0x080081d0                Vector12C
 *fill*         0x0800821c        0x4 
 .text.Vector130
                0x08008220       0x48 C:\Users\Ciccio\AppData\Local\Temp\ccXVDL4Z.ltrans7.ltrans.o
                0x08008220                Vector130
 *fill*         0x08008268        0x8 
 .text.Vector150
                0x08008270       0x4c C:\Users\Ciccio\AppData\Local\Temp\ccXVDL4Z.ltrans7.ltrans.o
                0x08008270                Vector150
 *fill*         0x080082bc        0x4 
 .text.Vector154
                0x080082c0       0x4c C:\Users\Ciccio\AppData\Local\Temp\ccXVDL4Z.ltrans7.ltrans.o
                0x080082c0                Vector154
 *fill*         0x0800830c        0x4 
 .text.Vector158
                0x08008310       0x4c C:\Users\Ciccio\AppData\Local\Temp\ccXVDL4Z.ltrans7.ltrans.o
                0x08008310                Vector158
 *fill*         0x0800835c        0x4 
 .text.dmaInit  0x08008360       0x70 C:\Users\Ciccio\AppData\Local\Temp\ccXVDL4Z.ltrans7.ltrans.o
 .text.dmaStreamAllocate
                0x080083d0       0xfc C:\Users\Ciccio\AppData\Local\Temp\ccXVDL4Z.ltrans7.ltrans.o
                0x080083d0                dmaStreamAllocate
 *fill*         0x080084cc        0x4 
 .text.port_lock.lto_priv.275
                0x080084d0       0x10 C:\Users\Ciccio\AppData\Local\Temp\ccXVDL4Z.ltrans7.ltrans.o
 .text.port_unlock.lto_priv.272
                0x080084e0       0x10 C:\Users\Ciccio\AppData\Local\Temp\ccXVDL4Z.ltrans7.ltrans.o
 .text.port_lock_from_isr.lto_priv.257
                0x080084f0        0x8 C:\Users\Ciccio\AppData\Local\Temp\ccXVDL4Z.ltrans7.ltrans.o
                0x080084f0                port_lock_from_isr.lto_priv.257
 *fill*         0x080084f8        0x8 
 .text.port_unlock_from_isr.lto_priv.254
                0x08008500        0x8 C:\Users\Ciccio\AppData\Local\Temp\ccXVDL4Z.ltrans7.ltrans.o
                0x08008500                port_unlock_from_isr.lto_priv.254
 *fill*         0x08008508        0x8 
 .text.chOQResetI
                0x08008510       0x40 C:\Users\Ciccio\AppData\Local\Temp\ccXVDL4Z.ltrans8.ltrans.o
                0x08008510                chOQResetI
 .text.chOQPutTimeout
                0x08008550       0x88 C:\Users\Ciccio\AppData\Local\Temp\ccXVDL4Z.ltrans8.ltrans.o
                0x08008550                chOQPutTimeout
 *fill*         0x080085d8        0x8 
 .text.chOQGetI
                0x080085e0       0x60 C:\Users\Ciccio\AppData\Local\Temp\ccXVDL4Z.ltrans8.ltrans.o
                0x080085e0                chOQGetI
 .text.chOQWriteTimeout
                0x08008640       0xb8 C:\Users\Ciccio\AppData\Local\Temp\ccXVDL4Z.ltrans8.ltrans.o
                0x08008640                chOQWriteTimeout
 *fill*         0x080086f8        0x8 
 .text.port_lock.lto_priv.325
                0x08008700       0x10 C:\Users\Ciccio\AppData\Local\Temp\ccXVDL4Z.ltrans8.ltrans.o
 .text.port_unlock.lto_priv.321
                0x08008710       0x10 C:\Users\Ciccio\AppData\Local\Temp\ccXVDL4Z.ltrans8.ltrans.o
 .text.chSysLock.lto_priv.318
                0x08008720       0x10 C:\Users\Ciccio\AppData\Local\Temp\ccXVDL4Z.ltrans8.ltrans.o
 .text.chSysUnlock.lto_priv.313
                0x08008730       0x38 C:\Users\Ciccio\AppData\Local\Temp\ccXVDL4Z.ltrans8.ltrans.o
 *fill*         0x08008768        0x8 
 .text._core_init
                0x08008770       0x2c C:\Users\Ciccio\AppData\Local\Temp\ccXVDL4Z.ltrans8.ltrans.o
                0x08008770                _core_init
 *fill*         0x0800879c        0x4 
 .text.chCoreAlloc
                0x080087a0       0x20 C:\Users\Ciccio\AppData\Local\Temp\ccXVDL4Z.ltrans8.ltrans.o
 .text.chCoreAllocI
                0x080087c0       0x50 C:\Users\Ciccio\AppData\Local\Temp\ccXVDL4Z.ltrans8.ltrans.o
 .text.chCoreGetStatusX
                0x08008810       0x18 C:\Users\Ciccio\AppData\Local\Temp\ccXVDL4Z.ltrans8.ltrans.o
                0x08008810                chCoreGetStatusX
 *fill*         0x08008828        0x8 
 .text._heap_init
                0x08008830       0x28 C:\Users\Ciccio\AppData\Local\Temp\ccXVDL4Z.ltrans8.ltrans.o
                0x08008830                _heap_init
 *fill*         0x08008858        0x8 
 .text.chHeapObjectInit
                0x08008860       0x60 C:\Users\Ciccio\AppData\Local\Temp\ccXVDL4Z.ltrans8.ltrans.o
                0x08008860                chHeapObjectInit
 .text.chHeapAlloc
                0x080088c0       0xf0 C:\Users\Ciccio\AppData\Local\Temp\ccXVDL4Z.ltrans8.ltrans.o
                0x080088c0                chHeapAlloc
 .text.chHeapFree
                0x080089b0       0xf8 C:\Users\Ciccio\AppData\Local\Temp\ccXVDL4Z.ltrans8.ltrans.o
                0x080089b0                chHeapFree
 *fill*         0x08008aa8        0x8 
 .text.chHeapStatus
                0x08008ab0       0x70 C:\Users\Ciccio\AppData\Local\Temp\ccXVDL4Z.ltrans8.ltrans.o
                0x08008ab0                chHeapStatus
 .text.port_lock.lto_priv.326
                0x08008b20       0x10 C:\Users\Ciccio\AppData\Local\Temp\ccXVDL4Z.ltrans8.ltrans.o
 .text.port_unlock.lto_priv.322
                0x08008b30       0x10 C:\Users\Ciccio\AppData\Local\Temp\ccXVDL4Z.ltrans8.ltrans.o
 .text.chSysLock.lto_priv.319
                0x08008b40       0x10 C:\Users\Ciccio\AppData\Local\Temp\ccXVDL4Z.ltrans8.ltrans.o
 .text.chSysUnlock.lto_priv.314
                0x08008b50       0x38 C:\Users\Ciccio\AppData\Local\Temp\ccXVDL4Z.ltrans8.ltrans.o
 *fill*         0x08008b88        0x8 
 .text.chPoolAdd
                0x08008b90       0x18 C:\Users\Ciccio\AppData\Local\Temp\ccXVDL4Z.ltrans8.ltrans.o
 *fill*         0x08008ba8        0x8 
 .text.chPoolObjectInit
                0x08008bb0       0x38 C:\Users\Ciccio\AppData\Local\Temp\ccXVDL4Z.ltrans8.ltrans.o
                0x08008bb0                chPoolObjectInit
 *fill*         0x08008be8        0x8 
 .text.chPoolLoadArray
                0x08008bf0       0x48 C:\Users\Ciccio\AppData\Local\Temp\ccXVDL4Z.ltrans8.ltrans.o
                0x08008bf0                chPoolLoadArray
 *fill*         0x08008c38        0x8 
 .text.chPoolAllocI
                0x08008c40       0x54 C:\Users\Ciccio\AppData\Local\Temp\ccXVDL4Z.ltrans8.ltrans.o
 *fill*         0x08008c94        0xc 
 .text.chPoolAlloc
                0x08008ca0       0x20 C:\Users\Ciccio\AppData\Local\Temp\ccXVDL4Z.ltrans8.ltrans.o
                0x08008ca0                chPoolAlloc
 .text.chPoolFreeI
                0x08008cc0       0x3c C:\Users\Ciccio\AppData\Local\Temp\ccXVDL4Z.ltrans8.ltrans.o
 *fill*         0x08008cfc        0x4 
 .text.chPoolFree
                0x08008d00       0x20 C:\Users\Ciccio\AppData\Local\Temp\ccXVDL4Z.ltrans8.ltrans.o
                0x08008d00                chPoolFree
 .text.port_lock.lto_priv.327
                0x08008d20       0x10 C:\Users\Ciccio\AppData\Local\Temp\ccXVDL4Z.ltrans8.ltrans.o
 .text.port_unlock.lto_priv.323
                0x08008d30       0x10 C:\Users\Ciccio\AppData\Local\Temp\ccXVDL4Z.ltrans8.ltrans.o
 .text.port_lock_from_isr
                0x08008d40        0x8 C:\Users\Ciccio\AppData\Local\Temp\ccXVDL4Z.ltrans8.ltrans.o
 *fill*         0x08008d48        0x8 
 .text.port_unlock_from_isr
                0x08008d50        0x8 C:\Users\Ciccio\AppData\Local\Temp\ccXVDL4Z.ltrans8.ltrans.o
 *fill*         0x08008d58        0x8 
 .text.SVC_Handler
                0x08008d60       0x28 C:\Users\Ciccio\AppData\Local\Temp\ccXVDL4Z.ltrans8.ltrans.o
                0x08008d60                SVC_Handler
 *fill*         0x08008d88        0x8 
 .text._port_irq_epilogue
                0x08008d90       0x64 C:\Users\Ciccio\AppData\Local\Temp\ccXVDL4Z.ltrans8.ltrans.o
                0x08008d90                _port_irq_epilogue
 *fill*         0x08008df4        0xc 
 .text.osalInit
                0x08008e00        0x4 C:\Users\Ciccio\AppData\Local\Temp\ccXVDL4Z.ltrans8.ltrans.o
 *fill*         0x08008e04        0xc 
 .text.halInit  0x08008e10       0x28 C:\Users\Ciccio\AppData\Local\Temp\ccXVDL4Z.ltrans8.ltrans.o
                0x08008e10                halInit
 *fill*         0x08008e38        0x8 
 .text.st_lld_start_alarm
                0x08008e40       0x20 C:\Users\Ciccio\AppData\Local\Temp\ccXVDL4Z.ltrans8.ltrans.o
 .text.st_lld_stop_alarm
                0x08008e60        0xc C:\Users\Ciccio\AppData\Local\Temp\ccXVDL4Z.ltrans8.ltrans.o
 *fill*         0x08008e6c        0x4 
 .text.st_lld_set_alarm
                0x08008e70       0x10 C:\Users\Ciccio\AppData\Local\Temp\ccXVDL4Z.ltrans8.ltrans.o
 .text.st_lld_is_alarm_active
                0x08008e80       0x18 C:\Users\Ciccio\AppData\Local\Temp\ccXVDL4Z.ltrans8.ltrans.o
 *fill*         0x08008e98        0x8 
 .text.stInit   0x08008ea0        0x8 C:\Users\Ciccio\AppData\Local\Temp\ccXVDL4Z.ltrans8.ltrans.o
 *fill*         0x08008ea8        0x8 
 .text.stStartAlarm
                0x08008eb0       0x28 C:\Users\Ciccio\AppData\Local\Temp\ccXVDL4Z.ltrans8.ltrans.o
                0x08008eb0                stStartAlarm
 *fill*         0x08008ed8        0x8 
 .text.stStopAlarm
                0x08008ee0        0x8 C:\Users\Ciccio\AppData\Local\Temp\ccXVDL4Z.ltrans8.ltrans.o
                0x08008ee0                stStopAlarm
 *fill*         0x08008ee8        0x8 
 .text.stSetAlarm
                0x08008ef0       0x2c C:\Users\Ciccio\AppData\Local\Temp\ccXVDL4Z.ltrans8.ltrans.o
                0x08008ef0                stSetAlarm
 *fill*         0x08008f1c        0x4 
 .text.chCondObjectInit
                0x08008f20       0x24 C:\Users\Ciccio\AppData\Local\Temp\ccXVDL4Z.ltrans9.ltrans.o
                0x08008f20                chCondObjectInit
 *fill*         0x08008f44        0xc 
 .text.chCondSignal
                0x08008f50       0x44 C:\Users\Ciccio\AppData\Local\Temp\ccXVDL4Z.ltrans9.ltrans.o
                0x08008f50                chCondSignal
 *fill*         0x08008f94        0xc 
 .text.chCondSignalI
                0x08008fa0       0x44 C:\Users\Ciccio\AppData\Local\Temp\ccXVDL4Z.ltrans9.ltrans.o
                0x08008fa0                chCondSignalI
 *fill*         0x08008fe4        0xc 
 .text.chCondBroadcast
                0x08008ff0       0x20 C:\Users\Ciccio\AppData\Local\Temp\ccXVDL4Z.ltrans9.ltrans.o
                0x08008ff0                chCondBroadcast
 .text.chCondBroadcastI
                0x08009010       0x48 C:\Users\Ciccio\AppData\Local\Temp\ccXVDL4Z.ltrans9.ltrans.o
 *fill*         0x08009058        0x8 
 .text.chCondWait
                0x08009060       0x20 C:\Users\Ciccio\AppData\Local\Temp\ccXVDL4Z.ltrans9.ltrans.o
                0x08009060                chCondWait
 .text.chCondWaitS
                0x08009080       0x6c C:\Users\Ciccio\AppData\Local\Temp\ccXVDL4Z.ltrans9.ltrans.o
 *fill*         0x080090ec        0x4 
 .text.chCondWaitTimeout
                0x080090f0       0x24 C:\Users\Ciccio\AppData\Local\Temp\ccXVDL4Z.ltrans9.ltrans.o
                0x080090f0                chCondWaitTimeout
 *fill*         0x08009114        0xc 
 .text.chCondWaitTimeoutS
                0x08009120       0x7c C:\Users\Ciccio\AppData\Local\Temp\ccXVDL4Z.ltrans9.ltrans.o
 *fill*         0x0800919c        0x4 
 .text.port_lock.lto_priv.347
                0x080091a0       0x10 C:\Users\Ciccio\AppData\Local\Temp\ccXVDL4Z.ltrans9.ltrans.o
 .text.port_unlock.lto_priv.343
                0x080091b0       0x10 C:\Users\Ciccio\AppData\Local\Temp\ccXVDL4Z.ltrans9.ltrans.o
 .text.chSysLock.lto_priv.359
                0x080091c0       0x10 C:\Users\Ciccio\AppData\Local\Temp\ccXVDL4Z.ltrans9.ltrans.o
 .text.chSysUnlock.lto_priv.355
                0x080091d0       0x38 C:\Users\Ciccio\AppData\Local\Temp\ccXVDL4Z.ltrans9.ltrans.o
 *fill*         0x08009208        0x8 
 .text.chEvtRegisterMaskWithFlags
                0x08009210       0x5c C:\Users\Ciccio\AppData\Local\Temp\ccXVDL4Z.ltrans9.ltrans.o
                0x08009210                chEvtRegisterMaskWithFlags
 *fill*         0x0800926c        0x4 
 .text.chEvtUnregister
                0x08009270       0x58 C:\Users\Ciccio\AppData\Local\Temp\ccXVDL4Z.ltrans9.ltrans.o
                0x08009270                chEvtUnregister
 *fill*         0x080092c8        0x8 
 .text.chEvtGetAndClearEvents
                0x080092d0       0x3c C:\Users\Ciccio\AppData\Local\Temp\ccXVDL4Z.ltrans9.ltrans.o
                0x080092d0                chEvtGetAndClearEvents
 *fill*         0x0800930c        0x4 
 .text.chEvtAddEvents
                0x08009310       0x34 C:\Users\Ciccio\AppData\Local\Temp\ccXVDL4Z.ltrans9.ltrans.o
                0x08009310                chEvtAddEvents
 *fill*         0x08009344        0xc 
 .text.chEvtBroadcastFlagsI
                0x08009350       0x68 C:\Users\Ciccio\AppData\Local\Temp\ccXVDL4Z.ltrans9.ltrans.o
                0x08009350                chEvtBroadcastFlagsI
 *fill*         0x080093b8        0x8 
 .text.chEvtSignal
                0x080093c0       0x34 C:\Users\Ciccio\AppData\Local\Temp\ccXVDL4Z.ltrans9.ltrans.o
                0x080093c0                chEvtSignal
 *fill*         0x080093f4        0xc 
 .text.chEvtSignalI
                0x08009400       0x70 C:\Users\Ciccio\AppData\Local\Temp\ccXVDL4Z.ltrans9.ltrans.o
 .text.chEvtBroadcastFlags
                0x08009470       0x24 C:\Users\Ciccio\AppData\Local\Temp\ccXVDL4Z.ltrans9.ltrans.o
                0x08009470                chEvtBroadcastFlags
 *fill*         0x08009494        0xc 
 .text.chEvtDispatch
                0x080094a0       0x74 C:\Users\Ciccio\AppData\Local\Temp\ccXVDL4Z.ltrans9.ltrans.o
                0x080094a0                chEvtDispatch
 *fill*         0x08009514        0xc 
 .text.chEvtWaitOne
                0x08009520       0x60 C:\Users\Ciccio\AppData\Local\Temp\ccXVDL4Z.ltrans9.ltrans.o
                0x08009520                chEvtWaitOne
 .text.chEvtWaitAny
                0x08009580       0x58 C:\Users\Ciccio\AppData\Local\Temp\ccXVDL4Z.ltrans9.ltrans.o
                0x08009580                chEvtWaitAny
 *fill*         0x080095d8        0x8 
 .text.chEvtWaitAll
                0x080095e0       0x4c C:\Users\Ciccio\AppData\Local\Temp\ccXVDL4Z.ltrans9.ltrans.o
                0x080095e0                chEvtWaitAll
 *fill*         0x0800962c        0x4 
 .text.chEvtWaitOneTimeout
                0x08009630       0x80 C:\Users\Ciccio\AppData\Local\Temp\ccXVDL4Z.ltrans9.ltrans.o
                0x08009630                chEvtWaitOneTimeout
 .text.chEvtWaitAnyTimeout
                0x080096b0       0x78 C:\Users\Ciccio\AppData\Local\Temp\ccXVDL4Z.ltrans9.ltrans.o
                0x080096b0                chEvtWaitAnyTimeout
 *fill*         0x08009728        0x8 
 .text.chEvtWaitAllTimeout
                0x08009730       0x6c C:\Users\Ciccio\AppData\Local\Temp\ccXVDL4Z.ltrans9.ltrans.o
                0x08009730                chEvtWaitAllTimeout
 *fill*         0x0800979c        0x4 
 .text.port_lock.lto_priv.348
                0x080097a0       0x10 C:\Users\Ciccio\AppData\Local\Temp\ccXVDL4Z.ltrans9.ltrans.o
 .text.port_unlock.lto_priv.344
                0x080097b0       0x10 C:\Users\Ciccio\AppData\Local\Temp\ccXVDL4Z.ltrans9.ltrans.o
 .text.queue_insert
                0x080097c0       0x28 C:\Users\Ciccio\AppData\Local\Temp\ccXVDL4Z.ltrans9.ltrans.o
 *fill*         0x080097e8        0x8 
 .text.queue_fifo_remove.lto_priv.363
                0x080097f0       0x24 C:\Users\Ciccio\AppData\Local\Temp\ccXVDL4Z.ltrans9.ltrans.o
 *fill*         0x08009814        0xc 
 .text.chSysLock.lto_priv.360
                0x08009820       0x10 C:\Users\Ciccio\AppData\Local\Temp\ccXVDL4Z.ltrans9.ltrans.o
 .text.chSysUnlock.lto_priv.356
                0x08009830       0x38 C:\Users\Ciccio\AppData\Local\Temp\ccXVDL4Z.ltrans9.ltrans.o
 *fill*         0x08009868        0x8 
 .text.chMsgIsPendingI
                0x08009870       0x24 C:\Users\Ciccio\AppData\Local\Temp\ccXVDL4Z.ltrans9.ltrans.o
 *fill*         0x08009894        0xc 
 .text.chMsgReleaseS
                0x080098a0       0x1c C:\Users\Ciccio\AppData\Local\Temp\ccXVDL4Z.ltrans9.ltrans.o
 *fill*         0x080098bc        0x4 
 .text.chMsgSend
                0x080098c0       0x6c C:\Users\Ciccio\AppData\Local\Temp\ccXVDL4Z.ltrans9.ltrans.o
                0x080098c0                chMsgSend
 *fill*         0x0800992c        0x4 
 .text.chMsgWait
                0x08009930       0x4c C:\Users\Ciccio\AppData\Local\Temp\ccXVDL4Z.ltrans9.ltrans.o
                0x08009930                chMsgWait
 *fill*         0x0800997c        0x4 
 .text.chMsgRelease
                0x08009980       0x34 C:\Users\Ciccio\AppData\Local\Temp\ccXVDL4Z.ltrans9.ltrans.o
                0x08009980                chMsgRelease
 *fill*         0x080099b4        0xc 
 .text.port_lock.lto_priv.349
                0x080099c0       0x10 C:\Users\Ciccio\AppData\Local\Temp\ccXVDL4Z.ltrans9.ltrans.o
 .text.port_unlock.lto_priv.345
                0x080099d0       0x10 C:\Users\Ciccio\AppData\Local\Temp\ccXVDL4Z.ltrans9.ltrans.o
 .text.chSysLock.lto_priv.361
                0x080099e0       0x10 C:\Users\Ciccio\AppData\Local\Temp\ccXVDL4Z.ltrans9.ltrans.o
 .text.chSysUnlock.lto_priv.357
                0x080099f0       0x38 C:\Users\Ciccio\AppData\Local\Temp\ccXVDL4Z.ltrans9.ltrans.o
 *fill*         0x08009a28        0x8 
 .text.chSemFastWaitI
                0x08009a30       0x1c C:\Users\Ciccio\AppData\Local\Temp\ccXVDL4Z.ltrans9.ltrans.o
 *fill*         0x08009a4c        0x4 
 .text.chSemGetCounterI
                0x08009a50       0x18 C:\Users\Ciccio\AppData\Local\Temp\ccXVDL4Z.ltrans9.ltrans.o
 *fill*         0x08009a68        0x8 
 .text.chMBObjectInit
                0x08009a70       0x64 C:\Users\Ciccio\AppData\Local\Temp\ccXVDL4Z.ltrans9.ltrans.o
                0x08009a70                chMBObjectInit
 *fill*         0x08009ad4        0xc 
 .text.chMBReset
                0x08009ae0       0x20 C:\Users\Ciccio\AppData\Local\Temp\ccXVDL4Z.ltrans9.ltrans.o
                0x08009ae0                chMBReset
 .text.chMBResetI
                0x08009b00       0x58 C:\Users\Ciccio\AppData\Local\Temp\ccXVDL4Z.ltrans9.ltrans.o
 *fill*         0x08009b58        0x8 
 .text.chMBPost
                0x08009b60       0x28 C:\Users\Ciccio\AppData\Local\Temp\ccXVDL4Z.ltrans9.ltrans.o
                0x08009b60                chMBPost
 *fill*         0x08009b88        0x8 
 .text.chMBPostS
                0x08009b90       0x6c C:\Users\Ciccio\AppData\Local\Temp\ccXVDL4Z.ltrans9.ltrans.o
 *fill*         0x08009bfc        0x4 
 .text.chMBPostI
                0x08009c00       0x74 C:\Users\Ciccio\AppData\Local\Temp\ccXVDL4Z.ltrans9.ltrans.o
                0x08009c00                chMBPostI
 *fill*         0x08009c74        0xc 
 .text.chMBPostAhead
                0x08009c80       0x28 C:\Users\Ciccio\AppData\Local\Temp\ccXVDL4Z.ltrans9.ltrans.o
                0x08009c80                chMBPostAhead
 *fill*         0x08009ca8        0x8 
 .text.chMBPostAheadS
                0x08009cb0       0x74 C:\Users\Ciccio\AppData\Local\Temp\ccXVDL4Z.ltrans9.ltrans.o
 *fill*         0x08009d24        0xc 
 .text.chMBPostAheadI
                0x08009d30       0x78 C:\Users\Ciccio\AppData\Local\Temp\ccXVDL4Z.ltrans9.ltrans.o
                0x08009d30                chMBPostAheadI
 *fill*         0x08009da8        0x8 
 .text.chMBFetch
                0x08009db0       0x28 C:\Users\Ciccio\AppData\Local\Temp\ccXVDL4Z.ltrans9.ltrans.o
                0x08009db0                chMBFetch
 *fill*         0x08009dd8        0x8 
 .text.chMBFetchS
                0x08009de0       0x74 C:\Users\Ciccio\AppData\Local\Temp\ccXVDL4Z.ltrans9.ltrans.o
 *fill*         0x08009e54        0xc 
 .text.chMBFetchI
                0x08009e60       0x7c C:\Users\Ciccio\AppData\Local\Temp\ccXVDL4Z.ltrans9.ltrans.o
                0x08009e60                chMBFetchI
 *fill*         0x08009edc        0x4 
 .text.port_lock.lto_priv.350
                0x08009ee0       0x10 C:\Users\Ciccio\AppData\Local\Temp\ccXVDL4Z.ltrans9.ltrans.o
 .text.port_unlock.lto_priv.346
                0x08009ef0       0x10 C:\Users\Ciccio\AppData\Local\Temp\ccXVDL4Z.ltrans9.ltrans.o
 .text.queue_init.lto_priv.342
                0x08009f00       0x14 C:\Users\Ciccio\AppData\Local\Temp\ccXVDL4Z.ltrans9.ltrans.o
 *fill*         0x08009f14        0xc 
 .text.chSysLock.lto_priv.317
                0x08009f20       0x10 C:\Users\Ciccio\AppData\Local\Temp\ccXVDL4Z.ltrans9.ltrans.o
                0x08009f20                chSysLock.lto_priv.317
 .text.chSysUnlock.lto_priv.312
                0x08009f30       0x38 C:\Users\Ciccio\AppData\Local\Temp\ccXVDL4Z.ltrans9.ltrans.o
                0x08009f30                chSysUnlock.lto_priv.312
 *fill*         0x08009f68        0x8 
 .text.chThdQueueObjectInit
                0x08009f70       0x14 C:\Users\Ciccio\AppData\Local\Temp\ccXVDL4Z.ltrans9.ltrans.o
 *fill*         0x08009f84        0xc 
 .text.chIQIsEmptyI
                0x08009f90       0x20 C:\Users\Ciccio\AppData\Local\Temp\ccXVDL4Z.ltrans9.ltrans.o
 .text.chIQIsFullI
                0x08009fb0       0x34 C:\Users\Ciccio\AppData\Local\Temp\ccXVDL4Z.ltrans9.ltrans.o
 *fill*         0x08009fe4        0xc 
 .text.chOQIsEmptyI.lto_priv.339
                0x08009ff0       0x34 C:\Users\Ciccio\AppData\Local\Temp\ccXVDL4Z.ltrans9.ltrans.o
                0x08009ff0                chOQIsEmptyI.lto_priv.339
 *fill*         0x0800a024        0xc 
 .text.chOQIsFullI.lto_priv.338
                0x0800a030       0x20 C:\Users\Ciccio\AppData\Local\Temp\ccXVDL4Z.ltrans9.ltrans.o
                0x0800a030                chOQIsFullI.lto_priv.338
 .text.chIQObjectInit
                0x0800a050       0x48 C:\Users\Ciccio\AppData\Local\Temp\ccXVDL4Z.ltrans9.ltrans.o
                0x0800a050                chIQObjectInit
 *fill*         0x0800a098        0x8 
 .text.chIQResetI
                0x0800a0a0       0x34 C:\Users\Ciccio\AppData\Local\Temp\ccXVDL4Z.ltrans9.ltrans.o
                0x0800a0a0                chIQResetI
 *fill*         0x0800a0d4        0xc 
 .text.chIQPutI
                0x0800a0e0       0x64 C:\Users\Ciccio\AppData\Local\Temp\ccXVDL4Z.ltrans9.ltrans.o
                0x0800a0e0                chIQPutI
 *fill*         0x0800a144        0xc 
 .text.chIQGetTimeout
                0x0800a150       0x84 C:\Users\Ciccio\AppData\Local\Temp\ccXVDL4Z.ltrans9.ltrans.o
                0x0800a150                chIQGetTimeout
 *fill*         0x0800a1d4        0xc 
 .text.chIQReadTimeout
                0x0800a1e0       0xb8 C:\Users\Ciccio\AppData\Local\Temp\ccXVDL4Z.ltrans9.ltrans.o
                0x0800a1e0                chIQReadTimeout
 *fill*         0x0800a298        0x8 
 .text.chOQObjectInit
                0x0800a2a0       0x48 C:\Users\Ciccio\AppData\Local\Temp\ccXVDL4Z.ltrans9.ltrans.o
                0x0800a2a0                chOQObjectInit
 *fill*         0x0800a2e8        0x8 
 .text.chTMStartMeasurementX
                0x0800a2f0       0x18 C:\Users\Ciccio\AppData\Local\Temp\ccXVDL4Z.ltrans10.ltrans.o
                0x0800a2f0                chTMStartMeasurementX
 *fill*         0x0800a308        0x8 
 .text.chTMStopMeasurementX
                0x0800a310       0x28 C:\Users\Ciccio\AppData\Local\Temp\ccXVDL4Z.ltrans10.ltrans.o
                0x0800a310                chTMStopMeasurementX
 *fill*         0x0800a338        0x8 
 .text.chTMChainMeasurementToX
                0x0800a340       0x28 C:\Users\Ciccio\AppData\Local\Temp\ccXVDL4Z.ltrans10.ltrans.o
 *fill*         0x0800a368        0x8 
 .text.port_lock.lto_priv.378
                0x0800a370       0x10 C:\Users\Ciccio\AppData\Local\Temp\ccXVDL4Z.ltrans10.ltrans.o
 .text.port_unlock.lto_priv.372
                0x0800a380       0x10 C:\Users\Ciccio\AppData\Local\Temp\ccXVDL4Z.ltrans10.ltrans.o
 .text.port_lock_from_isr
                0x0800a390        0x8 C:\Users\Ciccio\AppData\Local\Temp\ccXVDL4Z.ltrans10.ltrans.o
 *fill*         0x0800a398        0x8 
 .text.port_unlock_from_isr
                0x0800a3a0        0x8 C:\Users\Ciccio\AppData\Local\Temp\ccXVDL4Z.ltrans10.ltrans.o
 *fill*         0x0800a3a8        0x8 
 .text._stats_init
                0x0800a3b0       0x2c C:\Users\Ciccio\AppData\Local\Temp\ccXVDL4Z.ltrans10.ltrans.o
                0x0800a3b0                _stats_init
 *fill*         0x0800a3dc        0x4 
 .text._stats_increase_irq
                0x0800a3e0       0x20 C:\Users\Ciccio\AppData\Local\Temp\ccXVDL4Z.ltrans10.ltrans.o
                0x0800a3e0                _stats_increase_irq
 .text._stats_ctxswc
                0x0800a400       0x34 C:\Users\Ciccio\AppData\Local\Temp\ccXVDL4Z.ltrans10.ltrans.o
                0x0800a400                _stats_ctxswc
 *fill*         0x0800a434        0xc 
 .text._stats_start_measure_crit_thd
                0x0800a440       0x10 C:\Users\Ciccio\AppData\Local\Temp\ccXVDL4Z.ltrans10.ltrans.o
                0x0800a440                _stats_start_measure_crit_thd
 .text._stats_stop_measure_crit_thd
                0x0800a450       0x10 C:\Users\Ciccio\AppData\Local\Temp\ccXVDL4Z.ltrans10.ltrans.o
                0x0800a450                _stats_stop_measure_crit_thd
 .text._stats_start_measure_crit_isr
                0x0800a460       0x10 C:\Users\Ciccio\AppData\Local\Temp\ccXVDL4Z.ltrans10.ltrans.o
                0x0800a460                _stats_start_measure_crit_isr
 .text._stats_stop_measure_crit_isr
                0x0800a470       0x10 C:\Users\Ciccio\AppData\Local\Temp\ccXVDL4Z.ltrans10.ltrans.o
                0x0800a470                _stats_stop_measure_crit_isr
 .text.port_lock.lto_priv.379
                0x0800a480       0x10 C:\Users\Ciccio\AppData\Local\Temp\ccXVDL4Z.ltrans10.ltrans.o
 .text.port_unlock.lto_priv.373
                0x0800a490       0x10 C:\Users\Ciccio\AppData\Local\Temp\ccXVDL4Z.ltrans10.ltrans.o
 .text.chSysLock.lto_priv.389
                0x0800a4a0       0x10 C:\Users\Ciccio\AppData\Local\Temp\ccXVDL4Z.ltrans10.ltrans.o
 .text.chSysUnlock.lto_priv.385
                0x0800a4b0       0x38 C:\Users\Ciccio\AppData\Local\Temp\ccXVDL4Z.ltrans10.ltrans.o
 *fill*         0x0800a4e8        0x8 
 .text.chThdAddRef
                0x0800a4f0       0x3c C:\Users\Ciccio\AppData\Local\Temp\ccXVDL4Z.ltrans10.ltrans.o
                0x0800a4f0                chThdAddRef
 *fill*         0x0800a52c        0x4 
 .text.chThdRelease
                0x0800a530       0xb0 C:\Users\Ciccio\AppData\Local\Temp\ccXVDL4Z.ltrans10.ltrans.o
                0x0800a530                chThdRelease
 .text.chThdCreateFromHeap
                0x0800a5e0       0x78 C:\Users\Ciccio\AppData\Local\Temp\ccXVDL4Z.ltrans10.ltrans.o
                0x0800a5e0                chThdCreateFromHeap
 *fill*         0x0800a658        0x8 
 .text.chThdCreateFromMemoryPool
                0x0800a660       0x94 C:\Users\Ciccio\AppData\Local\Temp\ccXVDL4Z.ltrans10.ltrans.o
                0x0800a660                chThdCreateFromMemoryPool
 *fill*         0x0800a6f4        0xc 
 .text.port_lock.lto_priv.380
                0x0800a700       0x10 C:\Users\Ciccio\AppData\Local\Temp\ccXVDL4Z.ltrans10.ltrans.o
 .text.port_unlock.lto_priv.374
                0x0800a710       0x10 C:\Users\Ciccio\AppData\Local\Temp\ccXVDL4Z.ltrans10.ltrans.o
 .text.chSysLock.lto_priv.390
                0x0800a720       0x10 C:\Users\Ciccio\AppData\Local\Temp\ccXVDL4Z.ltrans10.ltrans.o
 .text.chSysUnlock.lto_priv.386
                0x0800a730       0x38 C:\Users\Ciccio\AppData\Local\Temp\ccXVDL4Z.ltrans10.ltrans.o
 *fill*         0x0800a768        0x8 
 .text.chRegFirstThread
                0x0800a770       0x30 C:\Users\Ciccio\AppData\Local\Temp\ccXVDL4Z.ltrans10.ltrans.o
                0x0800a770                chRegFirstThread
 .text.chRegNextThread
                0x0800a7a0       0x5c C:\Users\Ciccio\AppData\Local\Temp\ccXVDL4Z.ltrans10.ltrans.o
                0x0800a7a0                chRegNextThread
 *fill*         0x0800a7fc        0x4 
 .text.port_lock.lto_priv.381
                0x0800a800       0x10 C:\Users\Ciccio\AppData\Local\Temp\ccXVDL4Z.ltrans10.ltrans.o
 .text.port_unlock.lto_priv.375
                0x0800a810       0x10 C:\Users\Ciccio\AppData\Local\Temp\ccXVDL4Z.ltrans10.ltrans.o
 .text.queue_init.lto_priv.397
                0x0800a820       0x14 C:\Users\Ciccio\AppData\Local\Temp\ccXVDL4Z.ltrans10.ltrans.o
 *fill*         0x0800a834        0xc 
 .text.queue_isempty
                0x0800a840       0x1c C:\Users\Ciccio\AppData\Local\Temp\ccXVDL4Z.ltrans10.ltrans.o
 *fill*         0x0800a85c        0x4 
 .text.queue_notempty.lto_priv.395
                0x0800a860       0x1c C:\Users\Ciccio\AppData\Local\Temp\ccXVDL4Z.ltrans10.ltrans.o
 *fill*         0x0800a87c        0x4 
 .text.queue_insert
                0x0800a880       0x28 C:\Users\Ciccio\AppData\Local\Temp\ccXVDL4Z.ltrans10.ltrans.o
 *fill*         0x0800a8a8        0x8 
 .text.queue_fifo_remove.lto_priv.393
                0x0800a8b0       0x24 C:\Users\Ciccio\AppData\Local\Temp\ccXVDL4Z.ltrans10.ltrans.o
 *fill*         0x0800a8d4        0xc 
 .text.queue_lifo_remove
                0x0800a8e0       0x24 C:\Users\Ciccio\AppData\Local\Temp\ccXVDL4Z.ltrans10.ltrans.o
 *fill*         0x0800a904        0xc 
 .text.chSysLock.lto_priv.391
                0x0800a910       0x10 C:\Users\Ciccio\AppData\Local\Temp\ccXVDL4Z.ltrans10.ltrans.o
 .text.chSysUnlock.lto_priv.387
                0x0800a920       0x38 C:\Users\Ciccio\AppData\Local\Temp\ccXVDL4Z.ltrans10.ltrans.o
 *fill*         0x0800a958        0x8 
 .text.chSemObjectInit
                0x0800a960       0x34 C:\Users\Ciccio\AppData\Local\Temp\ccXVDL4Z.ltrans10.ltrans.o
                0x0800a960                chSemObjectInit
 *fill*         0x0800a994        0xc 
 .text.chSemReset
                0x0800a9a0       0x24 C:\Users\Ciccio\AppData\Local\Temp\ccXVDL4Z.ltrans10.ltrans.o
                0x0800a9a0                chSemReset
 *fill*         0x0800a9c4        0xc 
 .text.chSemResetI
                0x0800a9d0       0x98 C:\Users\Ciccio\AppData\Local\Temp\ccXVDL4Z.ltrans10.ltrans.o
                0x0800a9d0                chSemResetI
 *fill*         0x0800aa68        0x8 
 .text.chSemWait
                0x0800aa70       0x20 C:\Users\Ciccio\AppData\Local\Temp\ccXVDL4Z.ltrans10.ltrans.o
                0x0800aa70                chSemWait
 .text.chSemWaitS
                0x0800aa90       0x9c C:\Users\Ciccio\AppData\Local\Temp\ccXVDL4Z.ltrans10.ltrans.o
 *fill*         0x0800ab2c        0x4 
 .text.chSemWaitTimeout
                0x0800ab30       0x24 C:\Users\Ciccio\AppData\Local\Temp\ccXVDL4Z.ltrans10.ltrans.o
                0x0800ab30                chSemWaitTimeout
 *fill*         0x0800ab54        0xc 
 .text.chSemWaitTimeoutS
                0x0800ab60       0xb4 C:\Users\Ciccio\AppData\Local\Temp\ccXVDL4Z.ltrans10.ltrans.o
                0x0800ab60                chSemWaitTimeoutS
 *fill*         0x0800ac14        0xc 
 .text.chSemSignal
                0x0800ac20       0x88 C:\Users\Ciccio\AppData\Local\Temp\ccXVDL4Z.ltrans10.ltrans.o
                0x0800ac20                chSemSignal
 *fill*         0x0800aca8        0x8 
 .text.chSemSignalI
                0x0800acb0       0x88 C:\Users\Ciccio\AppData\Local\Temp\ccXVDL4Z.ltrans10.ltrans.o
                0x0800acb0                chSemSignalI
 *fill*         0x0800ad38        0x8 
 .text.chSemAddCounterI
                0x0800ad40       0x9c C:\Users\Ciccio\AppData\Local\Temp\ccXVDL4Z.ltrans10.ltrans.o
                0x0800ad40                chSemAddCounterI
 *fill*         0x0800addc        0x4 
 .text.chSemSignalWait
                0x0800ade0      0x118 C:\Users\Ciccio\AppData\Local\Temp\ccXVDL4Z.ltrans10.ltrans.o
                0x0800ade0                chSemSignalWait
 *fill*         0x0800aef8        0x8 
 .text.port_lock.lto_priv.382
                0x0800af00       0x10 C:\Users\Ciccio\AppData\Local\Temp\ccXVDL4Z.ltrans10.ltrans.o
 .text.port_unlock.lto_priv.376
                0x0800af10       0x10 C:\Users\Ciccio\AppData\Local\Temp\ccXVDL4Z.ltrans10.ltrans.o
 .text.queue_init.lto_priv.398
                0x0800af20       0x14 C:\Users\Ciccio\AppData\Local\Temp\ccXVDL4Z.ltrans10.ltrans.o
 *fill*         0x0800af34        0xc 
 .text.queue_notempty.lto_priv.396
                0x0800af40       0x1c C:\Users\Ciccio\AppData\Local\Temp\ccXVDL4Z.ltrans10.ltrans.o
 *fill*         0x0800af5c        0x4 
 .text.queue_prio_insert
                0x0800af60       0x44 C:\Users\Ciccio\AppData\Local\Temp\ccXVDL4Z.ltrans10.ltrans.o
 *fill*         0x0800afa4        0xc 
 .text.queue_fifo_remove.lto_priv.394
                0x0800afb0       0x24 C:\Users\Ciccio\AppData\Local\Temp\ccXVDL4Z.ltrans10.ltrans.o
 *fill*         0x0800afd4        0xc 
 .text.queue_dequeue
                0x0800afe0       0x20 C:\Users\Ciccio\AppData\Local\Temp\ccXVDL4Z.ltrans10.ltrans.o
 .text.chSysLock.lto_priv.392
                0x0800b000       0x10 C:\Users\Ciccio\AppData\Local\Temp\ccXVDL4Z.ltrans10.ltrans.o
 .text.chSysUnlock.lto_priv.388
                0x0800b010       0x38 C:\Users\Ciccio\AppData\Local\Temp\ccXVDL4Z.ltrans10.ltrans.o
 *fill*         0x0800b048        0x8 
 .text.chMtxQueueNotEmptyS
                0x0800b050       0x1c C:\Users\Ciccio\AppData\Local\Temp\ccXVDL4Z.ltrans10.ltrans.o
 *fill*         0x0800b06c        0x4 
 .text.chMtxObjectInit
                0x0800b070       0x2c C:\Users\Ciccio\AppData\Local\Temp\ccXVDL4Z.ltrans10.ltrans.o
                0x0800b070                chMtxObjectInit
 *fill*         0x0800b09c        0x4 
 .text.chMtxLock
                0x0800b0a0       0x1c C:\Users\Ciccio\AppData\Local\Temp\ccXVDL4Z.ltrans10.ltrans.o
                0x0800b0a0                chMtxLock
 *fill*         0x0800b0bc        0x4 
 .text.chMtxLockS
                0x0800b0c0       0xfc C:\Users\Ciccio\AppData\Local\Temp\ccXVDL4Z.ltrans10.ltrans.o
                0x0800b0c0                chMtxLockS
 *fill*         0x0800b1bc        0x4 
 .text.chMtxTryLock
                0x0800b1c0       0x28 C:\Users\Ciccio\AppData\Local\Temp\ccXVDL4Z.ltrans10.ltrans.o
                0x0800b1c0                chMtxTryLock
 *fill*         0x0800b1e8        0x8 
 .text.chMtxTryLockS
                0x0800b1f0       0x50 C:\Users\Ciccio\AppData\Local\Temp\ccXVDL4Z.ltrans10.ltrans.o
 .text.chMtxUnlock
                0x0800b240       0xe4 C:\Users\Ciccio\AppData\Local\Temp\ccXVDL4Z.ltrans10.ltrans.o
                0x0800b240                chMtxUnlock
 *fill*         0x0800b324        0xc 
 .text.chMtxUnlockS
                0x0800b330       0xdc C:\Users\Ciccio\AppData\Local\Temp\ccXVDL4Z.ltrans10.ltrans.o
                0x0800b330                chMtxUnlockS
 *fill*         0x0800b40c        0x4 
 .text.chMtxUnlockAll
                0x0800b410       0x80 C:\Users\Ciccio\AppData\Local\Temp\ccXVDL4Z.ltrans10.ltrans.o
                0x0800b410                chMtxUnlockAll
 .text.port_lock.lto_priv.383
                0x0800b490       0x10 C:\Users\Ciccio\AppData\Local\Temp\ccXVDL4Z.ltrans10.ltrans.o
 .text.port_unlock.lto_priv.377
                0x0800b4a0       0x10 C:\Users\Ciccio\AppData\Local\Temp\ccXVDL4Z.ltrans10.ltrans.o
 .text.queue_init.lto_priv.341
                0x0800b4b0       0x14 C:\Users\Ciccio\AppData\Local\Temp\ccXVDL4Z.ltrans10.ltrans.o
                0x0800b4b0                queue_init.lto_priv.341
 *fill*         0x0800b4c4        0xc 
 .text.queue_notempty.lto_priv.371
                0x0800b4d0       0x1c C:\Users\Ciccio\AppData\Local\Temp\ccXVDL4Z.ltrans10.ltrans.o
                0x0800b4d0                queue_notempty.lto_priv.371
 *fill*         0x0800b4ec        0x4 
 .text.queue_prio_insert.lto_priv.369
                0x0800b4f0       0x44 C:\Users\Ciccio\AppData\Local\Temp\ccXVDL4Z.ltrans10.ltrans.o
                0x0800b4f0                queue_prio_insert.lto_priv.369
 *fill*         0x0800b534        0xc 
 .text.queue_fifo_remove.lto_priv.362
                0x0800b540       0x24 C:\Users\Ciccio\AppData\Local\Temp\ccXVDL4Z.ltrans10.ltrans.o
                0x0800b540                queue_fifo_remove.lto_priv.362
 *fill*         0x0800b564        0xc 
 .text.chSysLock.lto_priv.358
                0x0800b570       0x10 C:\Users\Ciccio\AppData\Local\Temp\ccXVDL4Z.ltrans10.ltrans.o
                0x0800b570                chSysLock.lto_priv.358
 .text.chSysUnlock.lto_priv.354
                0x0800b580       0x38 C:\Users\Ciccio\AppData\Local\Temp\ccXVDL4Z.ltrans10.ltrans.o
                0x0800b580                chSysUnlock.lto_priv.354
 *fill*         0x0800b5b8        0x8 
 .text.chThdGetSelfX
                0x0800b5c0        0xc C:\Users\Ciccio\AppData\Local\Temp\ccXVDL4Z.ltrans10.ltrans.o
 *fill*         0x0800b5cc        0x4 
 .text.chMtxGetNextMutexS.lto_priv.370
                0x0800b5d0       0x10 C:\Users\Ciccio\AppData\Local\Temp\ccXVDL4Z.ltrans10.ltrans.o
                0x0800b5d0                chMtxGetNextMutexS.lto_priv.370
 .text.__core_init
                0x0800b5e0        0x4 C:\Users\Ciccio\AppData\Local\Temp\ccXVDL4Z.ltrans11.ltrans.o
                0x0800b5e0                __core_init
 *fill*         0x0800b5e4        0xc 
 .text.__late_init
                0x0800b5f0        0x4 C:\Users\Ciccio\AppData\Local\Temp\ccXVDL4Z.ltrans11.ltrans.o
                0x0800b5f0                __late_init
 *fill*         0x0800b5f4        0xc 
 .text.__default_exit
                0x0800b600        0x4 C:\Users\Ciccio\AppData\Local\Temp\ccXVDL4Z.ltrans11.ltrans.o
                0x0800b600                __default_exit
 *fill*         0x0800b604        0xc 
 .text.__init_ram_areas
                0x0800b610       0x64 C:\Users\Ciccio\AppData\Local\Temp\ccXVDL4Z.ltrans11.ltrans.o
                0x0800b610                __init_ram_areas
 *fill*         0x0800b674        0xc 
 .text._unhandled_exception
                0x0800b680        0x4 C:\Users\Ciccio\AppData\Local\Temp\ccXVDL4Z.ltrans11.ltrans.o
                0x0800b680                Vector58
                0x0800b680                VectorE8
                0x0800b680                Vector9C
                0x0800b680                VectorAC
                0x0800b680                DebugMon_Handler
                0x0800b680                Vector1A0
                0x0800b680                Vector5C
                0x0800b680                Vector11C
                0x0800b680                HardFault_Handler
                0x0800b680                Vector1B8
                0x0800b680                Vector19C
                0x0800b680                Vector8C
                0x0800b680                SysTick_Handler
                0x0800b680                VectorDC
                0x0800b680                PendSV_Handler
                0x0800b680                Vector168
                0x0800b680                NMI_Handler
                0x0800b680                Vector110
                0x0800b680                Vector94
                0x0800b680                VectorA8
                0x0800b680                VectorB4
                0x0800b680                Vector1B0
                0x0800b680                UsageFault_Handler
                0x0800b680                VectorEC
                0x0800b680                Vector40
                0x0800b680                VectorF8
                0x0800b680                Vector108
                0x0800b680                Vector190
                0x0800b680                Vector148
                0x0800b680                Vector188
                0x0800b680                Vector198
                0x0800b680                Vector118
                0x0800b680                Vector64
                0x0800b680                VectorCC
                0x0800b680                Vector54
                0x0800b680                Vector98
                0x0800b680                Vector138
                0x0800b680                Vector24
                0x0800b680                Vector1AC
                0x0800b680                Vector178
                0x0800b680                Vector1A4
                0x0800b680                VectorD0
                0x0800b680                Vector1B4
                0x0800b680                Vector140
                0x0800b680                VectorE4
                0x0800b680                Vector134
                0x0800b680                VectorF0
                0x0800b680                Vector13C
                0x0800b680                Vector100
                0x0800b680                VectorE0
                0x0800b680                VectorF4
                0x0800b680                MemManage_Handler
                0x0800b680                VectorA0
                0x0800b680                Vector180
                0x0800b680                Vector90
                0x0800b680                Vector114
                0x0800b680                Vector60
                0x0800b680                Vector1C
                0x0800b680                Vector1BC
                0x0800b680                Vector17C
                0x0800b680                Vector48
                0x0800b680                Vector1A8
                0x0800b680                Vector16C
                0x0800b680                VectorD4
                0x0800b680                Vector4C
                0x0800b680                Vector144
                0x0800b680                Vector15C
                0x0800b680                Vector68
                0x0800b680                Vector170
                0x0800b680                Vector88
                0x0800b680                Vector104
                0x0800b680                Vector184
                0x0800b680                Vector10C
                0x0800b680                Vector14C
                0x0800b680                BusFault_Handler
                0x0800b680                Vector50
                0x0800b680                Vector194
                0x0800b680                Vector44
                0x0800b680                Vector28
                0x0800b680                VectorB8
                0x0800b680                Vector34
                0x0800b680                VectorA4
                0x0800b680                Vector20
                0x0800b680                Vector18C
                0x0800b680                Vector174
 *fill*         0x0800b684        0xc 
 .text.NVIC_SetPriorityGrouping
                0x0800b690       0x3c C:\Users\Ciccio\AppData\Local\Temp\ccXVDL4Z.ltrans11.ltrans.o
 *fill*         0x0800b6cc        0x4 
 .text.NVIC_SetPriority
                0x0800b6d0       0x4c C:\Users\Ciccio\AppData\Local\Temp\ccXVDL4Z.ltrans11.ltrans.o
 *fill*         0x0800b71c        0x4 
 .text.port_init
                0x0800b720       0x48 C:\Users\Ciccio\AppData\Local\Temp\ccXVDL4Z.ltrans11.ltrans.o
 *fill*         0x0800b768        0x8 
 .text.port_get_irq_status
                0x0800b770       0x14 C:\Users\Ciccio\AppData\Local\Temp\ccXVDL4Z.ltrans11.ltrans.o
 *fill*         0x0800b784        0xc 
 .text.port_irq_enabled
                0x0800b790       0x18 C:\Users\Ciccio\AppData\Local\Temp\ccXVDL4Z.ltrans11.ltrans.o
 *fill*         0x0800b7a8        0x8 
 .text.port_is_isr_context
                0x0800b7b0       0x20 C:\Users\Ciccio\AppData\Local\Temp\ccXVDL4Z.ltrans11.ltrans.o
 .text.port_lock.lto_priv.441
                0x0800b7d0       0x10 C:\Users\Ciccio\AppData\Local\Temp\ccXVDL4Z.ltrans11.ltrans.o
 .text.port_unlock.lto_priv.437
                0x0800b7e0       0x10 C:\Users\Ciccio\AppData\Local\Temp\ccXVDL4Z.ltrans11.ltrans.o
 .text.port_lock_from_isr.lto_priv.452
                0x0800b7f0        0x8 C:\Users\Ciccio\AppData\Local\Temp\ccXVDL4Z.ltrans11.ltrans.o
 *fill*         0x0800b7f8        0x8 
 .text.port_unlock_from_isr.lto_priv.449
                0x0800b800        0x8 C:\Users\Ciccio\AppData\Local\Temp\ccXVDL4Z.ltrans11.ltrans.o
 *fill*         0x0800b808        0x8 
 .text.port_disable
                0x0800b810        0x4 C:\Users\Ciccio\AppData\Local\Temp\ccXVDL4Z.ltrans11.ltrans.o
 *fill*         0x0800b814        0xc 
 .text.port_enable
                0x0800b820       0x14 C:\Users\Ciccio\AppData\Local\Temp\ccXVDL4Z.ltrans11.ltrans.o
 *fill*         0x0800b834        0xc 
 .text.port_wait_for_interrupt
                0x0800b840        0x4 C:\Users\Ciccio\AppData\Local\Temp\ccXVDL4Z.ltrans11.ltrans.o
 *fill*         0x0800b844        0xc 
 .text.st_lld_get_counter.lto_priv.433
                0x0800b850        0xc C:\Users\Ciccio\AppData\Local\Temp\ccXVDL4Z.ltrans11.ltrans.o
 *fill*         0x0800b85c        0x4 
 .text.port_timer_stop_alarm.lto_priv.457
                0x0800b860        0x8 C:\Users\Ciccio\AppData\Local\Temp\ccXVDL4Z.ltrans11.ltrans.o
 *fill*         0x0800b868        0x8 
 .text.port_timer_set_alarm.lto_priv.455
                0x0800b870       0x14 C:\Users\Ciccio\AppData\Local\Temp\ccXVDL4Z.ltrans11.ltrans.o
 *fill*         0x0800b884        0xc 
 .text.port_timer_get_time.lto_priv.429
                0x0800b890        0xc C:\Users\Ciccio\AppData\Local\Temp\ccXVDL4Z.ltrans11.ltrans.o
 *fill*         0x0800b89c        0x4 
 .text.chSysEnable
                0x0800b8a0        0xc C:\Users\Ciccio\AppData\Local\Temp\ccXVDL4Z.ltrans11.ltrans.o
 *fill*         0x0800b8ac        0x4 
 .text.chSysLock.lto_priv.423
                0x0800b8b0       0x10 C:\Users\Ciccio\AppData\Local\Temp\ccXVDL4Z.ltrans11.ltrans.o
 .text.chSysUnlock.lto_priv.421
                0x0800b8c0       0x38 C:\Users\Ciccio\AppData\Local\Temp\ccXVDL4Z.ltrans11.ltrans.o
 *fill*         0x0800b8f8        0x8 
 .text.chSysLockFromISR.lto_priv.447
                0x0800b900       0x10 C:\Users\Ciccio\AppData\Local\Temp\ccXVDL4Z.ltrans11.ltrans.o
 .text.chSysUnlockFromISR.lto_priv.445
                0x0800b910       0x10 C:\Users\Ciccio\AppData\Local\Temp\ccXVDL4Z.ltrans11.ltrans.o
 .text.chVTGetSystemTimeX.lto_priv.417
                0x0800b920        0xc C:\Users\Ciccio\AppData\Local\Temp\ccXVDL4Z.ltrans11.ltrans.o
 *fill*         0x0800b92c        0x4 
 .text.chVTDoTickI
                0x0800b930       0xe0 C:\Users\Ciccio\AppData\Local\Temp\ccXVDL4Z.ltrans11.ltrans.o
 .text.chRegSetThreadName
                0x0800ba10       0x14 C:\Users\Ciccio\AppData\Local\Temp\ccXVDL4Z.ltrans11.ltrans.o
 *fill*         0x0800ba24        0xc 
 .text.chRegSetThreadNameX
                0x0800ba30       0x10 C:\Users\Ciccio\AppData\Local\Temp\ccXVDL4Z.ltrans11.ltrans.o
 .text._idle_thread
                0x0800ba40        0xc C:\Users\Ciccio\AppData\Local\Temp\ccXVDL4Z.ltrans11.ltrans.o
 *fill*         0x0800ba4c        0x4 
 .text.chSysInit
                0x0800ba50       0x98 C:\Users\Ciccio\AppData\Local\Temp\ccXVDL4Z.ltrans11.ltrans.o
                0x0800ba50                chSysInit
 *fill*         0x0800bae8        0x8 
 .text.chSysHalt
                0x0800baf0       0x18 C:\Users\Ciccio\AppData\Local\Temp\ccXVDL4Z.ltrans11.ltrans.o
                0x0800baf0                chSysHalt
 *fill*         0x0800bb08        0x8 
 .text.chSysIntegrityCheckI
                0x0800bb10      0x10c C:\Users\Ciccio\AppData\Local\Temp\ccXVDL4Z.ltrans11.ltrans.o
                0x0800bb10                chSysIntegrityCheckI
 *fill*         0x0800bc1c        0x4 
 .text.chSysTimerHandlerI
                0x0800bc20        0xc C:\Users\Ciccio\AppData\Local\Temp\ccXVDL4Z.ltrans11.ltrans.o
                0x0800bc20                chSysTimerHandlerI
 *fill*         0x0800bc2c        0x4 
 .text.chSysGetStatusAndLockX
                0x0800bc30       0x34 C:\Users\Ciccio\AppData\Local\Temp\ccXVDL4Z.ltrans11.ltrans.o
                0x0800bc30                chSysGetStatusAndLockX
 *fill*         0x0800bc64        0xc 
 .text.chSysRestoreStatusX
                0x0800bc70       0x30 C:\Users\Ciccio\AppData\Local\Temp\ccXVDL4Z.ltrans11.ltrans.o
                0x0800bc70                chSysRestoreStatusX
 .text.port_lock.lto_priv.442
                0x0800bca0       0x10 C:\Users\Ciccio\AppData\Local\Temp\ccXVDL4Z.ltrans11.ltrans.o
 .text.port_unlock.lto_priv.438
                0x0800bcb0       0x10 C:\Users\Ciccio\AppData\Local\Temp\ccXVDL4Z.ltrans11.ltrans.o
 .text.port_lock_from_isr.lto_priv.453
                0x0800bcc0        0x8 C:\Users\Ciccio\AppData\Local\Temp\ccXVDL4Z.ltrans11.ltrans.o
 *fill*         0x0800bcc8        0x8 
 .text.port_unlock_from_isr.lto_priv.450
                0x0800bcd0        0x8 C:\Users\Ciccio\AppData\Local\Temp\ccXVDL4Z.ltrans11.ltrans.o
 *fill*         0x0800bcd8        0x8 
 .text.st_lld_get_counter.lto_priv.434
                0x0800bce0        0xc C:\Users\Ciccio\AppData\Local\Temp\ccXVDL4Z.ltrans11.ltrans.o
 *fill*         0x0800bcec        0x4 
 .text.port_timer_get_time.lto_priv.430
                0x0800bcf0        0xc C:\Users\Ciccio\AppData\Local\Temp\ccXVDL4Z.ltrans11.ltrans.o
 *fill*         0x0800bcfc        0x4 
 .text.chVTGetSystemTimeX.lto_priv.418
                0x0800bd00        0xc C:\Users\Ciccio\AppData\Local\Temp\ccXVDL4Z.ltrans11.ltrans.o
 *fill*         0x0800bd0c        0x4 
 .text._dbg_check_disable
                0x0800bd10       0x24 C:\Users\Ciccio\AppData\Local\Temp\ccXVDL4Z.ltrans11.ltrans.o
                0x0800bd10                _dbg_check_disable
 *fill*         0x0800bd34        0xc 
 .text._dbg_check_suspend
                0x0800bd40       0x24 C:\Users\Ciccio\AppData\Local\Temp\ccXVDL4Z.ltrans11.ltrans.o
                0x0800bd40                _dbg_check_suspend
 *fill*         0x0800bd64        0xc 
 .text._dbg_check_enable
                0x0800bd70       0x24 C:\Users\Ciccio\AppData\Local\Temp\ccXVDL4Z.ltrans11.ltrans.o
                0x0800bd70                _dbg_check_enable
 *fill*         0x0800bd94        0xc 
 .text._dbg_check_lock
                0x0800bda0       0x28 C:\Users\Ciccio\AppData\Local\Temp\ccXVDL4Z.ltrans11.ltrans.o
                0x0800bda0                _dbg_check_lock
 *fill*         0x0800bdc8        0x8 
 .text._dbg_check_unlock
                0x0800bdd0       0x28 C:\Users\Ciccio\AppData\Local\Temp\ccXVDL4Z.ltrans11.ltrans.o
                0x0800bdd0                _dbg_check_unlock
 *fill*         0x0800bdf8        0x8 
 .text._dbg_check_lock_from_isr
                0x0800be00       0x28 C:\Users\Ciccio\AppData\Local\Temp\ccXVDL4Z.ltrans11.ltrans.o
                0x0800be00                _dbg_check_lock_from_isr
 *fill*         0x0800be28        0x8 
 .text._dbg_check_unlock_from_isr
                0x0800be30       0x28 C:\Users\Ciccio\AppData\Local\Temp\ccXVDL4Z.ltrans11.ltrans.o
                0x0800be30                _dbg_check_unlock_from_isr
 *fill*         0x0800be58        0x8 
 .text._dbg_check_enter_isr
                0x0800be60       0x34 C:\Users\Ciccio\AppData\Local\Temp\ccXVDL4Z.ltrans11.ltrans.o
                0x0800be60                _dbg_check_enter_isr
 *fill*         0x0800be94        0xc 
 .text._dbg_check_leave_isr
                0x0800bea0       0x34 C:\Users\Ciccio\AppData\Local\Temp\ccXVDL4Z.ltrans11.ltrans.o
                0x0800bea0                _dbg_check_leave_isr
 *fill*         0x0800bed4        0xc 
 .text.chDbgCheckClassI
                0x0800bee0       0x24 C:\Users\Ciccio\AppData\Local\Temp\ccXVDL4Z.ltrans11.ltrans.o
                0x0800bee0                chDbgCheckClassI
 *fill*         0x0800bf04        0xc 
 .text.chDbgCheckClassS
                0x0800bf10       0x24 C:\Users\Ciccio\AppData\Local\Temp\ccXVDL4Z.ltrans11.ltrans.o
                0x0800bf10                chDbgCheckClassS
 *fill*         0x0800bf34        0xc 
 .text._dbg_trace_init
                0x0800bf40       0x18 C:\Users\Ciccio\AppData\Local\Temp\ccXVDL4Z.ltrans11.ltrans.o
 *fill*         0x0800bf58        0x8 
 .text._dbg_trace
                0x0800bf60       0x5c C:\Users\Ciccio\AppData\Local\Temp\ccXVDL4Z.ltrans11.ltrans.o
 *fill*         0x0800bfbc        0x4 
 .text.st_lld_get_counter.lto_priv.435
                0x0800bfc0        0xc C:\Users\Ciccio\AppData\Local\Temp\ccXVDL4Z.ltrans11.ltrans.o
 *fill*         0x0800bfcc        0x4 
 .text.port_timer_start_alarm
                0x0800bfd0       0x14 C:\Users\Ciccio\AppData\Local\Temp\ccXVDL4Z.ltrans11.ltrans.o
 *fill*         0x0800bfe4        0xc 
 .text.port_timer_stop_alarm.lto_priv.458
                0x0800bff0        0x8 C:\Users\Ciccio\AppData\Local\Temp\ccXVDL4Z.ltrans11.ltrans.o
 *fill*         0x0800bff8        0x8 
 .text.port_timer_set_alarm.lto_priv.456
                0x0800c000       0x14 C:\Users\Ciccio\AppData\Local\Temp\ccXVDL4Z.ltrans11.ltrans.o
 *fill*         0x0800c014        0xc 
 .text.port_timer_get_time.lto_priv.431
                0x0800c020        0xc C:\Users\Ciccio\AppData\Local\Temp\ccXVDL4Z.ltrans11.ltrans.o
 *fill*         0x0800c02c        0x4 
 .text.chVTGetSystemTimeX.lto_priv.419
                0x0800c030        0xc C:\Users\Ciccio\AppData\Local\Temp\ccXVDL4Z.ltrans11.ltrans.o
 *fill*         0x0800c03c        0x4 
 .text._vt_init
                0x0800c040       0x24 C:\Users\Ciccio\AppData\Local\Temp\ccXVDL4Z.ltrans11.ltrans.o
 *fill*         0x0800c064        0xc 
 .text.chVTDoSetI
                0x0800c070      0x118 C:\Users\Ciccio\AppData\Local\Temp\ccXVDL4Z.ltrans11.ltrans.o
                0x0800c070                chVTDoSetI
 *fill*         0x0800c188        0x8 
 .text.chVTDoResetI
                0x0800c190       0xf4 C:\Users\Ciccio\AppData\Local\Temp\ccXVDL4Z.ltrans11.ltrans.o
                0x0800c190                chVTDoResetI
 *fill*         0x0800c284        0xc 
 .text.port_lock.lto_priv.443
                0x0800c290       0x10 C:\Users\Ciccio\AppData\Local\Temp\ccXVDL4Z.ltrans11.ltrans.o
 .text.port_unlock.lto_priv.439
                0x0800c2a0       0x10 C:\Users\Ciccio\AppData\Local\Temp\ccXVDL4Z.ltrans11.ltrans.o
 .text.port_lock_from_isr.lto_priv.454
                0x0800c2b0        0x8 C:\Users\Ciccio\AppData\Local\Temp\ccXVDL4Z.ltrans11.ltrans.o
 *fill*         0x0800c2b8        0x8 
 .text.port_unlock_from_isr.lto_priv.451
                0x0800c2c0        0x8 C:\Users\Ciccio\AppData\Local\Temp\ccXVDL4Z.ltrans11.ltrans.o
 *fill*         0x0800c2c8        0x8 
 .text.queue_init.lto_priv.427
                0x0800c2d0       0x14 C:\Users\Ciccio\AppData\Local\Temp\ccXVDL4Z.ltrans11.ltrans.o
 *fill*         0x0800c2e4        0xc 
 .text.queue_fifo_remove.lto_priv.425
                0x0800c2f0       0x24 C:\Users\Ciccio\AppData\Local\Temp\ccXVDL4Z.ltrans11.ltrans.o
 *fill*         0x0800c314        0xc 
 .text.queue_dequeue
                0x0800c320       0x20 C:\Users\Ciccio\AppData\Local\Temp\ccXVDL4Z.ltrans11.ltrans.o
 .text.chSchIsRescRequiredI
                0x0800c340       0x24 C:\Users\Ciccio\AppData\Local\Temp\ccXVDL4Z.ltrans11.ltrans.o
 *fill*         0x0800c364        0xc 
 .text.chSysLockFromISR.lto_priv.448
                0x0800c370       0x10 C:\Users\Ciccio\AppData\Local\Temp\ccXVDL4Z.ltrans11.ltrans.o
 .text.chSysUnlockFromISR.lto_priv.446
                0x0800c380       0x10 C:\Users\Ciccio\AppData\Local\Temp\ccXVDL4Z.ltrans11.ltrans.o
 .text.chVTIsArmedI
                0x0800c390       0x20 C:\Users\Ciccio\AppData\Local\Temp\ccXVDL4Z.ltrans11.ltrans.o
 .text.chSemFastSignalI
                0x0800c3b0       0x1c C:\Users\Ciccio\AppData\Local\Temp\ccXVDL4Z.ltrans11.ltrans.o
 *fill*         0x0800c3cc        0x4 
 .text._scheduler_init
                0x0800c3d0       0x20 C:\Users\Ciccio\AppData\Local\Temp\ccXVDL4Z.ltrans11.ltrans.o
 .text.chSchReadyI
                0x0800c3f0       0x7c C:\Users\Ciccio\AppData\Local\Temp\ccXVDL4Z.ltrans11.ltrans.o
                0x0800c3f0                chSchReadyI
 *fill*         0x0800c46c        0x4 
 .text.chSchGoSleepS
                0x0800c470       0x7c C:\Users\Ciccio\AppData\Local\Temp\ccXVDL4Z.ltrans11.ltrans.o
                0x0800c470                chSchGoSleepS
 *fill*         0x0800c4ec        0x4 
 .text.wakeup   0x0800c4f0       0x78 C:\Users\Ciccio\AppData\Local\Temp\ccXVDL4Z.ltrans11.ltrans.o
 *fill*         0x0800c568        0x8 
 .text.chSchGoSleepTimeoutS
                0x0800c570       0x6c C:\Users\Ciccio\AppData\Local\Temp\ccXVDL4Z.ltrans11.ltrans.o
                0x0800c570                chSchGoSleepTimeoutS
 *fill*         0x0800c5dc        0x4 
 .text.chSchWakeupS
                0x0800c5e0       0xa8 C:\Users\Ciccio\AppData\Local\Temp\ccXVDL4Z.ltrans11.ltrans.o
                0x0800c5e0                chSchWakeupS
 *fill*         0x0800c688        0x8 
 .text.chSchRescheduleS
                0x0800c690       0x18 C:\Users\Ciccio\AppData\Local\Temp\ccXVDL4Z.ltrans11.ltrans.o
                0x0800c690                chSchRescheduleS
 *fill*         0x0800c6a8        0x8 
 .text.chSchIsPreemptionRequired
                0x0800c6b0       0x2c C:\Users\Ciccio\AppData\Local\Temp\ccXVDL4Z.ltrans11.ltrans.o
                0x0800c6b0                chSchIsPreemptionRequired
 *fill*         0x0800c6dc        0x4 
 .text.chSchDoRescheduleBehind
                0x0800c6e0       0x70 C:\Users\Ciccio\AppData\Local\Temp\ccXVDL4Z.ltrans11.ltrans.o
 .text.chSchDoRescheduleAhead
                0x0800c750       0xa4 C:\Users\Ciccio\AppData\Local\Temp\ccXVDL4Z.ltrans11.ltrans.o
 *fill*         0x0800c7f4        0xc 
 .text.chSchDoReschedule
                0x0800c800        0x8 C:\Users\Ciccio\AppData\Local\Temp\ccXVDL4Z.ltrans11.ltrans.o
                0x0800c800                chSchDoReschedule
 *fill*         0x0800c808        0x8 
 .text.port_lock.lto_priv.444
                0x0800c810       0x10 C:\Users\Ciccio\AppData\Local\Temp\ccXVDL4Z.ltrans11.ltrans.o
 .text.port_unlock.lto_priv.440
                0x0800c820       0x10 C:\Users\Ciccio\AppData\Local\Temp\ccXVDL4Z.ltrans11.ltrans.o
 .text.st_lld_get_counter.lto_priv.436
                0x0800c830        0xc C:\Users\Ciccio\AppData\Local\Temp\ccXVDL4Z.ltrans11.ltrans.o
 *fill*         0x0800c83c        0x4 
 .text.port_timer_get_time.lto_priv.432
                0x0800c840        0xc C:\Users\Ciccio\AppData\Local\Temp\ccXVDL4Z.ltrans11.ltrans.o
 *fill*         0x0800c84c        0x4 
 .text.list_init
                0x0800c850       0x10 C:\Users\Ciccio\AppData\Local\Temp\ccXVDL4Z.ltrans11.ltrans.o
 .text.list_notempty
                0x0800c860       0x1c C:\Users\Ciccio\AppData\Local\Temp\ccXVDL4Z.ltrans11.ltrans.o
 *fill*         0x0800c87c        0x4 
 .text.queue_init.lto_priv.428
                0x0800c880       0x14 C:\Users\Ciccio\AppData\Local\Temp\ccXVDL4Z.ltrans11.ltrans.o
 *fill*         0x0800c894        0xc 
 .text.queue_notempty
                0x0800c8a0       0x1c C:\Users\Ciccio\AppData\Local\Temp\ccXVDL4Z.ltrans11.ltrans.o
 *fill*         0x0800c8bc        0x4 
 .text.list_insert
                0x0800c8c0       0x18 C:\Users\Ciccio\AppData\Local\Temp\ccXVDL4Z.ltrans11.ltrans.o
 *fill*         0x0800c8d8        0x8 
 .text.list_remove
                0x0800c8e0       0x1c C:\Users\Ciccio\AppData\Local\Temp\ccXVDL4Z.ltrans11.ltrans.o
 *fill*         0x0800c8fc        0x4 
 .text.queue_insert
                0x0800c900       0x28 C:\Users\Ciccio\AppData\Local\Temp\ccXVDL4Z.ltrans11.ltrans.o
 *fill*         0x0800c928        0x8 
 .text.queue_fifo_remove.lto_priv.426
                0x0800c930       0x24 C:\Users\Ciccio\AppData\Local\Temp\ccXVDL4Z.ltrans11.ltrans.o
 *fill*         0x0800c954        0xc 
 .text.chSchCanYieldS
                0x0800c960       0x24 C:\Users\Ciccio\AppData\Local\Temp\ccXVDL4Z.ltrans11.ltrans.o
 *fill*         0x0800c984        0xc 
 .text.chSchDoYieldS
                0x0800c990       0x18 C:\Users\Ciccio\AppData\Local\Temp\ccXVDL4Z.ltrans11.ltrans.o
 *fill*         0x0800c9a8        0x8 
 .text.chSysLock.lto_priv.424
                0x0800c9b0       0x10 C:\Users\Ciccio\AppData\Local\Temp\ccXVDL4Z.ltrans11.ltrans.o
 .text.chSysUnlock.lto_priv.422
                0x0800c9c0       0x38 C:\Users\Ciccio\AppData\Local\Temp\ccXVDL4Z.ltrans11.ltrans.o
 *fill*         0x0800c9f8        0x8 
 .text.chVTGetSystemTimeX.lto_priv.420
                0x0800ca00        0xc C:\Users\Ciccio\AppData\Local\Temp\ccXVDL4Z.ltrans11.ltrans.o
 *fill*         0x0800ca0c        0x4 
 .text.chThdGetSelfX
                0x0800ca10        0xc C:\Users\Ciccio\AppData\Local\Temp\ccXVDL4Z.ltrans11.ltrans.o
 *fill*         0x0800ca1c        0x4 
 .text.chThdStartI
                0x0800ca20       0x2c C:\Users\Ciccio\AppData\Local\Temp\ccXVDL4Z.ltrans11.ltrans.o
 *fill*         0x0800ca4c        0x4 
 .text.chThdSleepS
                0x0800ca50       0x24 C:\Users\Ciccio\AppData\Local\Temp\ccXVDL4Z.ltrans11.ltrans.o
 *fill*         0x0800ca74        0xc 
 .text.chThdDoDequeueNextI
                0x0800ca80       0x50 C:\Users\Ciccio\AppData\Local\Temp\ccXVDL4Z.ltrans11.ltrans.o
 .text._thread_init
                0x0800cad0       0x90 C:\Users\Ciccio\AppData\Local\Temp\ccXVDL4Z.ltrans11.ltrans.o
 .text._thread_memfill
                0x0800cb60       0x28 C:\Users\Ciccio\AppData\Local\Temp\ccXVDL4Z.ltrans11.ltrans.o
                0x0800cb60                _thread_memfill
 *fill*         0x0800cb88        0x8 
 .text.chThdCreateI
                0x0800cb90       0x70 C:\Users\Ciccio\AppData\Local\Temp\ccXVDL4Z.ltrans11.ltrans.o
                0x0800cb90                chThdCreateI
 .text.chThdCreateStatic
                0x0800cc00       0x5c C:\Users\Ciccio\AppData\Local\Temp\ccXVDL4Z.ltrans11.ltrans.o
                0x0800cc00                chThdCreateStatic
 *fill*         0x0800cc5c        0x4 
 .text.chThdStart
                0x0800cc60       0x20 C:\Users\Ciccio\AppData\Local\Temp\ccXVDL4Z.ltrans11.ltrans.o
                0x0800cc60                chThdStart
 .text.chThdSetPriority
                0x0800cc80       0x64 C:\Users\Ciccio\AppData\Local\Temp\ccXVDL4Z.ltrans11.ltrans.o
                0x0800cc80                chThdSetPriority
 *fill*         0x0800cce4        0xc 
 .text.chThdTerminate
                0x0800ccf0       0x28 C:\Users\Ciccio\AppData\Local\Temp\ccXVDL4Z.ltrans11.ltrans.o
                0x0800ccf0                chThdTerminate
 *fill*         0x0800cd18        0x8 
 .text.chThdSleep
                0x0800cd20       0x1c C:\Users\Ciccio\AppData\Local\Temp\ccXVDL4Z.ltrans11.ltrans.o
                0x0800cd20                chThdSleep
 *fill*         0x0800cd3c        0x4 
 .text.chThdSleepUntil
                0x0800cd40       0x2c C:\Users\Ciccio\AppData\Local\Temp\ccXVDL4Z.ltrans11.ltrans.o
                0x0800cd40                chThdSleepUntil
 *fill*         0x0800cd6c        0x4 
 .text.chThdYield
                0x0800cd70       0x10 C:\Users\Ciccio\AppData\Local\Temp\ccXVDL4Z.ltrans11.ltrans.o
                0x0800cd70                chThdYield
 .text.chThdExit
                0x0800cd80       0x18 C:\Users\Ciccio\AppData\Local\Temp\ccXVDL4Z.ltrans11.ltrans.o
                0x0800cd80                chThdExit
 *fill*         0x0800cd98        0x8 
 .text.chThdExitS
                0x0800cda0       0x74 C:\Users\Ciccio\AppData\Local\Temp\ccXVDL4Z.ltrans11.ltrans.o
 *fill*         0x0800ce14        0xc 
 .text.chThdWait
                0x0800ce20       0x78 C:\Users\Ciccio\AppData\Local\Temp\ccXVDL4Z.ltrans11.ltrans.o
                0x0800ce20                chThdWait
 *fill*         0x0800ce98        0x8 
 .text.chThdSuspendTimeoutS
                0x0800cea0       0x4c C:\Users\Ciccio\AppData\Local\Temp\ccXVDL4Z.ltrans11.ltrans.o
                0x0800cea0                chThdSuspendTimeoutS
 *fill*         0x0800ceec        0x4 
 .text.chThdResumeI
                0x0800cef0       0x44 C:\Users\Ciccio\AppData\Local\Temp\ccXVDL4Z.ltrans11.ltrans.o
                0x0800cef0                chThdResumeI
 *fill*         0x0800cf34        0xc 
 .text.chThdEnqueueTimeoutS
                0x0800cf40       0x38 C:\Users\Ciccio\AppData\Local\Temp\ccXVDL4Z.ltrans11.ltrans.o
                0x0800cf40                chThdEnqueueTimeoutS
 *fill*         0x0800cf78        0x8 
 .text.chThdDequeueNextI
                0x0800cf80       0x24 C:\Users\Ciccio\AppData\Local\Temp\ccXVDL4Z.ltrans11.ltrans.o
                0x0800cf80                chThdDequeueNextI
 *fill*         0x0800cfa4        0xc 
 .text.chThdDequeueAllI
                0x0800cfb0       0x24 C:\Users\Ciccio\AppData\Local\Temp\ccXVDL4Z.ltrans11.ltrans.o
                0x0800cfb0                chThdDequeueAllI
 *fill*         0x0800cfd4        0xc 
 .text.port_rt_get_counter_value.lto_priv.406
                0x0800cfe0        0xc C:\Users\Ciccio\AppData\Local\Temp\ccXVDL4Z.ltrans11.ltrans.o
                0x0800cfe0                port_rt_get_counter_value.lto_priv.406
 *fill*         0x0800cfec        0x4 
 .text.tm_stop.lto_priv.405
                0x0800cff0       0x6c C:\Users\Ciccio\AppData\Local\Temp\ccXVDL4Z.ltrans11.ltrans.o
                0x0800cff0                tm_stop.lto_priv.405
 *fill*         0x0800d05c        0x4 
 .text._tm_init
                0x0800d060       0x38 C:\Users\Ciccio\AppData\Local\Temp\ccXVDL4Z.ltrans11.ltrans.o
 *fill*         0x0800d098        0x8 
 .text.chTMObjectInit
                0x0800d0a0       0x30 C:\Users\Ciccio\AppData\Local\Temp\ccXVDL4Z.ltrans11.ltrans.o
                0x0800d0a0                chTMObjectInit
 .text.atoi     0x0800d0d0        0x8 c:/chibistudio/tools/gnu tools arm embedded/4.9 2015q3/bin/../lib/gcc/arm-none-eabi/4.9.3/../../../../arm-none-eabi/lib/armv7e-m\libg.a(lib_a-atoi.o)
                0x0800d0d0                atoi
 *fill*         0x0800d0d8        0x8 
 .text._strtol_r
                0x0800d0e0      0x11c c:/chibistudio/tools/gnu tools arm embedded/4.9 2015q3/bin/../lib/gcc/arm-none-eabi/4.9.3/../../../../arm-none-eabi/lib/armv7e-m\libg.a(lib_a-strtol.o)
                0x0800d0e0                _strtol_r
 *fill*         0x0800d1fc        0x4 
 .text.strtol   0x0800d200       0x18 c:/chibistudio/tools/gnu tools arm embedded/4.9 2015q3/bin/../lib/gcc/arm-none-eabi/4.9.3/../../../../arm-none-eabi/lib/armv7e-m\libg.a(lib_a-strtol.o)
                0x0800d200                strtol
 *(.rodata)
 *fill*         0x0800d218        0x8 
 .rodata        0x0800d220      0x58f C:\Users\Ciccio\AppData\Local\Temp\ccXVDL4Z.ltrans0.ltrans.o
 *fill*         0x0800d7af        0x1 
 .rodata        0x0800d7b0       0x87 C:\Users\Ciccio\AppData\Local\Temp\ccXVDL4Z.ltrans1.ltrans.o
 *fill*         0x0800d837        0x9 
 .rodata        0x0800d840       0x1d C:\Users\Ciccio\AppData\Local\Temp\ccXVDL4Z.ltrans2.ltrans.o
 *fill*         0x0800d85d        0x3 
 .rodata        0x0800d860        0xe C:\Users\Ciccio\AppData\Local\Temp\ccXVDL4Z.ltrans3.ltrans.o
 *fill*         0x0800d86e        0x2 
 .rodata        0x0800d870       0x20 C:\Users\Ciccio\AppData\Local\Temp\ccXVDL4Z.ltrans4.ltrans.o
 .rodata        0x0800d890      0x23e C:\Users\Ciccio\AppData\Local\Temp\ccXVDL4Z.ltrans5.ltrans.o
 *fill*         0x0800dace        0x2 
 .rodata        0x0800dad0        0xc C:\Users\Ciccio\AppData\Local\Temp\ccXVDL4Z.ltrans6.ltrans.o
 *fill*         0x0800dadc        0x4 
 .rodata        0x0800dae0       0x6f C:\Users\Ciccio\AppData\Local\Temp\ccXVDL4Z.ltrans11.ltrans.o
 *(.rodata.*)
 *fill*         0x0800db4f        0x1 
 .rodata.ram_areas.lto_priv.460
                0x0800db50       0x80 C:\Users\Ciccio\AppData\Local\Temp\ccXVDL4Z.ltrans0.ltrans.o
                0x0800db50                ram_areas.lto_priv.460
 .rodata.__func__.5826.lto_priv.459
                0x0800dbd0        0xc C:\Users\Ciccio\AppData\Local\Temp\ccXVDL4Z.ltrans0.ltrans.o
                0x0800dbd0                __func__.5826.lto_priv.459
 *fill*         0x0800dbdc        0x4 
 .rodata.__func__.5737.lto_priv.6
                0x0800dbe0        0xc C:\Users\Ciccio\AppData\Local\Temp\ccXVDL4Z.ltrans0.ltrans.o
                0x0800dbe0                __func__.5737.lto_priv.6
 *fill*         0x0800dbec        0x4 
 .rodata.__func__.6443.lto_priv.114
                0x0800dbf0        0xb C:\Users\Ciccio\AppData\Local\Temp\ccXVDL4Z.ltrans0.ltrans.o
                0x0800dbf0                __func__.6443.lto_priv.114
 *fill*         0x0800dbfb        0x5 
 .rodata.__func__.6451.lto_priv.111
                0x0800dc00        0xd C:\Users\Ciccio\AppData\Local\Temp\ccXVDL4Z.ltrans0.ltrans.o
                0x0800dc00                __func__.6451.lto_priv.111
 *fill*         0x0800dc0d        0x3 
 .rodata.__func__.6440.lto_priv.139
                0x0800dc10        0xc C:\Users\Ciccio\AppData\Local\Temp\ccXVDL4Z.ltrans0.ltrans.o
                0x0800dc10                __func__.6440.lto_priv.139
 *fill*         0x0800dc1c        0x4 
 .rodata.__func__.6468.lto_priv.141
                0x0800dc20        0xd C:\Users\Ciccio\AppData\Local\Temp\ccXVDL4Z.ltrans0.ltrans.o
                0x0800dc20                __func__.6468.lto_priv.141
 *fill*         0x0800dc2d        0x3 
 .rodata.__func__.6452.lto_priv.413
                0x0800dc30        0xd C:\Users\Ciccio\AppData\Local\Temp\ccXVDL4Z.ltrans0.ltrans.o
                0x0800dc30                __func__.6452.lto_priv.413
 *fill*         0x0800dc3d        0x3 
 .rodata.__func__.5737.lto_priv.7
                0x0800dc40        0xc C:\Users\Ciccio\AppData\Local\Temp\ccXVDL4Z.ltrans0.ltrans.o
                0x0800dc40                __func__.5737.lto_priv.7
 *fill*         0x0800dc4c        0x4 
 .rodata.__func__.5907.lto_priv.416
                0x0800dc50        0xc C:\Users\Ciccio\AppData\Local\Temp\ccXVDL4Z.ltrans0.ltrans.o
                0x0800dc50                __func__.5907.lto_priv.416
 *fill*         0x0800dc5c        0x4 
 .rodata.__func__.6468.lto_priv.142
                0x0800dc60       0x11 C:\Users\Ciccio\AppData\Local\Temp\ccXVDL4Z.ltrans0.ltrans.o
                0x0800dc60                __func__.6468.lto_priv.142
 *fill*         0x0800dc71        0xf 
 .rodata.__func__.5911.lto_priv.415
                0x0800dc80        0xc C:\Users\Ciccio\AppData\Local\Temp\ccXVDL4Z.ltrans0.ltrans.o
                0x0800dc80                __func__.5911.lto_priv.415
 *fill*         0x0800dc8c        0x4 
 .rodata.__func__.6496.lto_priv.412
                0x0800dc90        0xb C:\Users\Ciccio\AppData\Local\Temp\ccXVDL4Z.ltrans0.ltrans.o
                0x0800dc90                __func__.6496.lto_priv.412
 *fill*         0x0800dc9b        0x5 
 .rodata.__func__.6501.lto_priv.411
                0x0800dca0        0xa C:\Users\Ciccio\AppData\Local\Temp\ccXVDL4Z.ltrans0.ltrans.o
                0x0800dca0                __func__.6501.lto_priv.411
 *fill*         0x0800dcaa        0x6 
 .rodata.__func__.6512.lto_priv.409
                0x0800dcb0       0x15 C:\Users\Ciccio\AppData\Local\Temp\ccXVDL4Z.ltrans0.ltrans.o
                0x0800dcb0                __func__.6512.lto_priv.409
 *fill*         0x0800dcc5        0xb 
 .rodata.__func__.6518.lto_priv.408
                0x0800dcd0        0xd C:\Users\Ciccio\AppData\Local\Temp\ccXVDL4Z.ltrans0.ltrans.o
                0x0800dcd0                __func__.6518.lto_priv.408
 *fill*         0x0800dcdd        0x3 
 .rodata.__func__.5923.lto_priv.414
                0x0800dce0       0x14 C:\Users\Ciccio\AppData\Local\Temp\ccXVDL4Z.ltrans0.ltrans.o
                0x0800dce0                __func__.5923.lto_priv.414
 *fill*         0x0800dcf4        0xc 
 .rodata.__func__.6435.lto_priv.136
                0x0800dd00        0xc C:\Users\Ciccio\AppData\Local\Temp\ccXVDL4Z.ltrans0.ltrans.o
                0x0800dd00                __func__.6435.lto_priv.136
 *fill*         0x0800dd0c        0x4 
 .rodata.__func__.5737.lto_priv.8
                0x0800dd10        0xc C:\Users\Ciccio\AppData\Local\Temp\ccXVDL4Z.ltrans0.ltrans.o
                0x0800dd10                __func__.5737.lto_priv.8
 *fill*         0x0800dd1c        0x4 
 .rodata.__func__.6440.lto_priv.140
                0x0800dd20        0xd C:\Users\Ciccio\AppData\Local\Temp\ccXVDL4Z.ltrans0.ltrans.o
                0x0800dd20                __func__.6440.lto_priv.140
 *fill*         0x0800dd2d        0x3 
 .rodata.__func__.6462.lto_priv.123
                0x0800dd30       0x1a C:\Users\Ciccio\AppData\Local\Temp\ccXVDL4Z.ltrans0.ltrans.o
                0x0800dd30                __func__.6462.lto_priv.123
 *fill*         0x0800dd4a        0x6 
 .rodata.ch_debug
                0x0800dd50       0x16 C:\Users\Ciccio\AppData\Local\Temp\ccXVDL4Z.ltrans0.ltrans.o
                0x0800dd50                ch_debug
 *fill*         0x0800dd66        0xa 
 .rodata.__func__.5737.lto_priv.9
                0x0800dd70        0xc C:\Users\Ciccio\AppData\Local\Temp\ccXVDL4Z.ltrans0.ltrans.o
                0x0800dd70                __func__.5737.lto_priv.9
 *fill*         0x0800dd7c        0x4 
 .rodata.__func__.6441.lto_priv.404
                0x0800dd80       0x10 C:\Users\Ciccio\AppData\Local\Temp\ccXVDL4Z.ltrans0.ltrans.o
                0x0800dd80                __func__.6441.lto_priv.404
 .rodata.__func__.6436.lto_priv.403
                0x0800dd90       0x10 C:\Users\Ciccio\AppData\Local\Temp\ccXVDL4Z.ltrans0.ltrans.o
                0x0800dd90                __func__.6436.lto_priv.403
 .rodata.__func__.5737.lto_priv.10
                0x0800dda0        0xc C:\Users\Ciccio\AppData\Local\Temp\ccXVDL4Z.ltrans0.ltrans.o
                0x0800dda0                __func__.5737.lto_priv.10
 *fill*         0x0800ddac        0x4 
 .rodata.__func__.6446.lto_priv.129
                0x0800ddb0        0xc C:\Users\Ciccio\AppData\Local\Temp\ccXVDL4Z.ltrans0.ltrans.o
                0x0800ddb0                __func__.6446.lto_priv.129
 *fill*         0x0800ddbc        0x4 
 .rodata.__func__.6457.lto_priv.125
                0x0800ddc0        0xb C:\Users\Ciccio\AppData\Local\Temp\ccXVDL4Z.ltrans0.ltrans.o
                0x0800ddc0                __func__.6457.lto_priv.125
 *fill*         0x0800ddcb        0x5 
 .rodata.__func__.6467.lto_priv.402
                0x0800ddd0       0x12 C:\Users\Ciccio\AppData\Local\Temp\ccXVDL4Z.ltrans0.ltrans.o
                0x0800ddd0                __func__.6467.lto_priv.402
 *fill*         0x0800dde2        0xe 
 .rodata.__func__.6471.lto_priv.401
                0x0800ddf0        0xc C:\Users\Ciccio\AppData\Local\Temp\ccXVDL4Z.ltrans0.ltrans.o
                0x0800ddf0                __func__.6471.lto_priv.401
 *fill*         0x0800ddfc        0x4 
 .rodata.__func__.6475.lto_priv.121
                0x0800de00        0xd C:\Users\Ciccio\AppData\Local\Temp\ccXVDL4Z.ltrans0.ltrans.o
                0x0800de00                __func__.6475.lto_priv.121
 *fill*         0x0800de0d        0x3 
 .rodata.__func__.6481.lto_priv.400
                0x0800de10       0x11 C:\Users\Ciccio\AppData\Local\Temp\ccXVDL4Z.ltrans0.ltrans.o
                0x0800de10                __func__.6481.lto_priv.400
 *fill*         0x0800de21        0xf 
 .rodata.__func__.6490.lto_priv.399
                0x0800de30       0x10 C:\Users\Ciccio\AppData\Local\Temp\ccXVDL4Z.ltrans0.ltrans.o
                0x0800de30                __func__.6490.lto_priv.399
 .rodata.__func__.6435.lto_priv.137
                0x0800de40       0x10 C:\Users\Ciccio\AppData\Local\Temp\ccXVDL4Z.ltrans0.ltrans.o
                0x0800de40                __func__.6435.lto_priv.137
 .rodata.__func__.5737.lto_priv.11
                0x0800de50        0xc C:\Users\Ciccio\AppData\Local\Temp\ccXVDL4Z.ltrans0.ltrans.o
                0x0800de50                __func__.5737.lto_priv.11
 *fill*         0x0800de5c        0x4 
 .rodata.__func__.6443.lto_priv.115
                0x0800de60        0xb C:\Users\Ciccio\AppData\Local\Temp\ccXVDL4Z.ltrans0.ltrans.o
                0x0800de60                __func__.6443.lto_priv.115
 *fill*         0x0800de6b        0x5 
 .rodata.__func__.6460.lto_priv.134
                0x0800de70        0xe C:\Users\Ciccio\AppData\Local\Temp\ccXVDL4Z.ltrans0.ltrans.o
                0x0800de70                __func__.6460.lto_priv.134
 *fill*         0x0800de7e        0x2 
 .rodata.__func__.6466.lto_priv.384
                0x0800de80        0xc C:\Users\Ciccio\AppData\Local\Temp\ccXVDL4Z.ltrans0.ltrans.o
                0x0800de80                __func__.6466.lto_priv.384
 *fill*         0x0800de8c        0x4 
 .rodata.__func__.6477.lto_priv.131
                0x0800de90        0xd C:\Users\Ciccio\AppData\Local\Temp\ccXVDL4Z.ltrans0.ltrans.o
                0x0800de90                __func__.6477.lto_priv.131
 *fill*         0x0800de9d        0x3 
 .rodata.__func__.6435.lto_priv.138
                0x0800dea0       0x11 C:\Users\Ciccio\AppData\Local\Temp\ccXVDL4Z.ltrans0.ltrans.o
                0x0800dea0                __func__.6435.lto_priv.138
 *fill*         0x0800deb1        0xf 
 .rodata.__func__.6439.lto_priv.368
                0x0800dec0        0xd C:\Users\Ciccio\AppData\Local\Temp\ccXVDL4Z.ltrans0.ltrans.o
                0x0800dec0                __func__.6439.lto_priv.368
 *fill*         0x0800decd        0x3 
 .rodata.__func__.5737.lto_priv.12
                0x0800ded0        0xc C:\Users\Ciccio\AppData\Local\Temp\ccXVDL4Z.ltrans0.ltrans.o
                0x0800ded0                __func__.5737.lto_priv.12
 *fill*         0x0800dedc        0x4 
 .rodata.__func__.6443.lto_priv.116
                0x0800dee0        0xe C:\Users\Ciccio\AppData\Local\Temp\ccXVDL4Z.ltrans0.ltrans.o
                0x0800dee0                __func__.6443.lto_priv.116
 *fill*         0x0800deee        0x2 
 .rodata.__func__.6451.lto_priv.112
                0x0800def0       0x11 C:\Users\Ciccio\AppData\Local\Temp\ccXVDL4Z.ltrans0.ltrans.o
                0x0800def0                __func__.6451.lto_priv.112
 *fill*         0x0800df01        0xf 
 .rodata.__func__.6465.lto_priv.367
                0x0800df10        0xc C:\Users\Ciccio\AppData\Local\Temp\ccXVDL4Z.ltrans0.ltrans.o
                0x0800df10                __func__.6465.lto_priv.367
 *fill*         0x0800df1c        0x4 
 .rodata.__func__.6477.lto_priv.132
                0x0800df20       0x13 C:\Users\Ciccio\AppData\Local\Temp\ccXVDL4Z.ltrans0.ltrans.o
                0x0800df20                __func__.6477.lto_priv.132
 *fill*         0x0800df33        0xd 
 .rodata.__func__.6438.lto_priv.366
                0x0800df40       0x1b C:\Users\Ciccio\AppData\Local\Temp\ccXVDL4Z.ltrans0.ltrans.o
                0x0800df40                __func__.6438.lto_priv.366
 *fill*         0x0800df5b        0x5 
 .rodata.__func__.5737.lto_priv.13
                0x0800df60        0xc C:\Users\Ciccio\AppData\Local\Temp\ccXVDL4Z.ltrans0.ltrans.o
                0x0800df60                __func__.5737.lto_priv.13
 *fill*         0x0800df6c        0x4 
 .rodata.__func__.6444.lto_priv.127
                0x0800df70       0x10 C:\Users\Ciccio\AppData\Local\Temp\ccXVDL4Z.ltrans0.ltrans.o
                0x0800df70                __func__.6444.lto_priv.127
 .rodata.__func__.6460.lto_priv.135
                0x0800df80       0x15 C:\Users\Ciccio\AppData\Local\Temp\ccXVDL4Z.ltrans0.ltrans.o
                0x0800df80                __func__.6460.lto_priv.135
 *fill*         0x0800df95        0xb 
 .rodata.__func__.6472.lto_priv.365
                0x0800dfa0        0xc C:\Users\Ciccio\AppData\Local\Temp\ccXVDL4Z.ltrans0.ltrans.o
                0x0800dfa0                __func__.6472.lto_priv.365
 *fill*         0x0800dfac        0x4 
 .rodata.__func__.6477.lto_priv.133
                0x0800dfb0        0xd C:\Users\Ciccio\AppData\Local\Temp\ccXVDL4Z.ltrans0.ltrans.o
                0x0800dfb0                __func__.6477.lto_priv.133
 *fill*         0x0800dfbd        0x3 
 .rodata.__func__.6491.lto_priv.364
                0x0800dfc0        0xe C:\Users\Ciccio\AppData\Local\Temp\ccXVDL4Z.ltrans0.ltrans.o
                0x0800dfc0                __func__.6491.lto_priv.364
 *fill*         0x0800dfce        0x2 
 .rodata.__func__.6437.lto_priv.118
                0x0800dfd0        0xa C:\Users\Ciccio\AppData\Local\Temp\ccXVDL4Z.ltrans0.ltrans.o
                0x0800dfd0                __func__.6437.lto_priv.118
 *fill*         0x0800dfda        0x6 
 .rodata.__func__.5737.lto_priv.14
                0x0800dfe0        0xc C:\Users\Ciccio\AppData\Local\Temp\ccXVDL4Z.ltrans0.ltrans.o
                0x0800dfe0                __func__.5737.lto_priv.14
 *fill*         0x0800dfec        0x4 
 .rodata.__func__.6446.lto_priv.130
                0x0800dff0        0xd C:\Users\Ciccio\AppData\Local\Temp\ccXVDL4Z.ltrans0.ltrans.o
                0x0800dff0                __func__.6446.lto_priv.130
 *fill*         0x0800dffd        0x3 
 .rodata.__func__.6437.lto_priv.119
                0x0800e000        0xf C:\Users\Ciccio\AppData\Local\Temp\ccXVDL4Z.ltrans0.ltrans.o
                0x0800e000                __func__.6437.lto_priv.119
 *fill*         0x0800e00f        0x1 
 .rodata.__func__.5737.lto_priv.15
                0x0800e010        0xc C:\Users\Ciccio\AppData\Local\Temp\ccXVDL4Z.ltrans0.ltrans.o
                0x0800e010                __func__.5737.lto_priv.15
 *fill*         0x0800e01c        0x4 
 .rodata.__func__.6444.lto_priv.128
                0x0800e020        0xb C:\Users\Ciccio\AppData\Local\Temp\ccXVDL4Z.ltrans0.ltrans.o
                0x0800e020                __func__.6444.lto_priv.128
 *fill*         0x0800e02b        0x5 
 .rodata.__func__.6457.lto_priv.126
                0x0800e030        0xa C:\Users\Ciccio\AppData\Local\Temp\ccXVDL4Z.ltrans0.ltrans.o
                0x0800e030                __func__.6457.lto_priv.126
 *fill*         0x0800e03a        0x6 
 .rodata.__func__.6462.lto_priv.124
                0x0800e040        0xa C:\Users\Ciccio\AppData\Local\Temp\ccXVDL4Z.ltrans0.ltrans.o
                0x0800e040                __func__.6462.lto_priv.124
 *fill*         0x0800e04a        0x6 
 .rodata.__func__.6475.lto_priv.122
                0x0800e050        0xf C:\Users\Ciccio\AppData\Local\Temp\ccXVDL4Z.ltrans0.ltrans.o
                0x0800e050                __func__.6475.lto_priv.122
 *fill*         0x0800e05f        0x1 
 .rodata.__func__.6480.lto_priv.353
                0x0800e060        0xf C:\Users\Ciccio\AppData\Local\Temp\ccXVDL4Z.ltrans0.ltrans.o
                0x0800e060                __func__.6480.lto_priv.353
 *fill*         0x0800e06f        0x1 
 .rodata.__func__.6493.lto_priv.352
                0x0800e070        0xb C:\Users\Ciccio\AppData\Local\Temp\ccXVDL4Z.ltrans0.ltrans.o
                0x0800e070                __func__.6493.lto_priv.352
 *fill*         0x0800e07b        0x5 
 .rodata.__func__.6498.lto_priv.351
                0x0800e080        0xb C:\Users\Ciccio\AppData\Local\Temp\ccXVDL4Z.ltrans0.ltrans.o
                0x0800e080                __func__.6498.lto_priv.351
 *fill*         0x0800e08b        0x5 
 .rodata.__func__.5737.lto_priv.16
                0x0800e090        0xc C:\Users\Ciccio\AppData\Local\Temp\ccXVDL4Z.ltrans0.ltrans.o
                0x0800e090                __func__.5737.lto_priv.16
 *fill*         0x0800e09c        0x4 
 .rodata.__func__.6463.lto_priv.340
                0x0800e0a0       0x10 C:\Users\Ciccio\AppData\Local\Temp\ccXVDL4Z.ltrans0.ltrans.o
                0x0800e0a0                __func__.6463.lto_priv.340
 .rodata.__func__.6499.lto_priv.337
                0x0800e0b0       0x11 C:\Users\Ciccio\AppData\Local\Temp\ccXVDL4Z.ltrans0.ltrans.o
                0x0800e0b0                __func__.6499.lto_priv.337
 *fill*         0x0800e0c1        0xf 
 .rodata.__func__.5737.lto_priv.17
                0x0800e0d0        0xc C:\Users\Ciccio\AppData\Local\Temp\ccXVDL4Z.ltrans0.ltrans.o
                0x0800e0d0                __func__.5737.lto_priv.17
 *fill*         0x0800e0dc        0x4 
 .rodata.__func__.6442.lto_priv.334
                0x0800e0e0       0x11 C:\Users\Ciccio\AppData\Local\Temp\ccXVDL4Z.ltrans0.ltrans.o
                0x0800e0e0                __func__.6442.lto_priv.334
 *fill*         0x0800e0f1        0xf 
 .rodata.__func__.6459.lto_priv.333
                0x0800e100        0xb C:\Users\Ciccio\AppData\Local\Temp\ccXVDL4Z.ltrans0.ltrans.o
                0x0800e100                __func__.6459.lto_priv.333
 *fill*         0x0800e10b        0x5 
 .rodata.__func__.6437.lto_priv.120
                0x0800e110       0x11 C:\Users\Ciccio\AppData\Local\Temp\ccXVDL4Z.ltrans0.ltrans.o
                0x0800e110                __func__.6437.lto_priv.120
 *fill*         0x0800e121        0xf 
 .rodata.__func__.6443.lto_priv.117
                0x0800e130       0x10 C:\Users\Ciccio\AppData\Local\Temp\ccXVDL4Z.ltrans0.ltrans.o
                0x0800e130                __func__.6443.lto_priv.117
 .rodata.__func__.6451.lto_priv.113
                0x0800e140        0xd C:\Users\Ciccio\AppData\Local\Temp\ccXVDL4Z.ltrans0.ltrans.o
                0x0800e140                __func__.6451.lto_priv.113
 *fill*         0x0800e14d        0x3 
 .rodata.__func__.5737.lto_priv.18
                0x0800e150        0xc C:\Users\Ciccio\AppData\Local\Temp\ccXVDL4Z.ltrans0.ltrans.o
                0x0800e150                __func__.5737.lto_priv.18
 *fill*         0x0800e15c        0x4 
 .rodata.__func__.6461.lto_priv.331
                0x0800e160        0xc C:\Users\Ciccio\AppData\Local\Temp\ccXVDL4Z.ltrans0.ltrans.o
                0x0800e160                __func__.6461.lto_priv.331
 *fill*         0x0800e16c        0x4 
 .rodata.__func__.7037.lto_priv.330
                0x0800e170        0xd C:\Users\Ciccio\AppData\Local\Temp\ccXVDL4Z.ltrans0.ltrans.o
                0x0800e170                __func__.7037.lto_priv.330
 *fill*         0x0800e17d        0x3 
 .rodata.__func__.7044.lto_priv.109
                0x0800e180        0xb C:\Users\Ciccio\AppData\Local\Temp\ccXVDL4Z.ltrans0.ltrans.o
                0x0800e180                __func__.7044.lto_priv.109
 *fill*         0x0800e18b        0x5 
 .rodata.__func__.7041.lto_priv.303
                0x0800e190        0x9 C:\Users\Ciccio\AppData\Local\Temp\ccXVDL4Z.ltrans0.ltrans.o
                0x0800e190                __func__.7041.lto_priv.303
 *fill*         0x0800e199        0x7 
 .rodata.__func__.5737.lto_priv.19
                0x0800e1a0        0xc C:\Users\Ciccio\AppData\Local\Temp\ccXVDL4Z.ltrans0.ltrans.o
                0x0800e1a0                __func__.5737.lto_priv.19
 *fill*         0x0800e1ac        0x4 
 .rodata.__func__.7060.lto_priv.300
                0x0800e1b0       0x19 C:\Users\Ciccio\AppData\Local\Temp\ccXVDL4Z.ltrans0.ltrans.o
                0x0800e1b0                __func__.7060.lto_priv.300
 *fill*         0x0800e1c9        0x7 
 .rodata.__func__.7073.lto_priv.298
                0x0800e1d0        0xe C:\Users\Ciccio\AppData\Local\Temp\ccXVDL4Z.ltrans0.ltrans.o
                0x0800e1d0                __func__.7073.lto_priv.298
 *fill*         0x0800e1de        0x2 
 .rodata.__func__.7077.lto_priv.297
                0x0800e1e0        0xe C:\Users\Ciccio\AppData\Local\Temp\ccXVDL4Z.ltrans0.ltrans.o
                0x0800e1e0                __func__.7077.lto_priv.297
 *fill*         0x0800e1ee        0x2 
 .rodata.vmt.lto_priv.0
                0x0800e1f0       0x20 C:\Users\Ciccio\AppData\Local\Temp\ccXVDL4Z.ltrans0.ltrans.o
                0x0800e1f0                vmt.lto_priv.0
 .rodata.__func__.7082.lto_priv.284
                0x0800e210        0x8 C:\Users\Ciccio\AppData\Local\Temp\ccXVDL4Z.ltrans0.ltrans.o
                0x0800e210                __func__.7082.lto_priv.284
 *fill*         0x0800e218        0x8 
 .rodata.__func__.5737.lto_priv.20
                0x0800e220        0xc C:\Users\Ciccio\AppData\Local\Temp\ccXVDL4Z.ltrans0.ltrans.o
                0x0800e220                __func__.5737.lto_priv.20
 *fill*         0x0800e22c        0x4 
 .rodata.__func__.7091.lto_priv.282
                0x0800e230       0x10 C:\Users\Ciccio\AppData\Local\Temp\ccXVDL4Z.ltrans0.ltrans.o
                0x0800e230                __func__.7091.lto_priv.282
 .rodata._stm32_dma_streams
                0x0800e240       0xc0 C:\Users\Ciccio\AppData\Local\Temp\ccXVDL4Z.ltrans0.ltrans.o
                0x0800e240                _stm32_dma_streams
 .rodata.__func__.7115.lto_priv.278
                0x0800e300       0x12 C:\Users\Ciccio\AppData\Local\Temp\ccXVDL4Z.ltrans0.ltrans.o
                0x0800e300                __func__.7115.lto_priv.278
 *fill*         0x0800e312        0xe 
 .rodata.__func__.7052.lto_priv.265
                0x0800e320       0x12 C:\Users\Ciccio\AppData\Local\Temp\ccXVDL4Z.ltrans0.ltrans.o
                0x0800e320                __func__.7052.lto_priv.265
 *fill*         0x0800e332        0xe 
 .rodata.__func__.7131.lto_priv.264
                0x0800e340        0xe C:\Users\Ciccio\AppData\Local\Temp\ccXVDL4Z.ltrans0.ltrans.o
                0x0800e340                __func__.7131.lto_priv.264
 *fill*         0x0800e34e        0x2 
 .rodata.__func__.5737.lto_priv.21
                0x0800e350        0xc C:\Users\Ciccio\AppData\Local\Temp\ccXVDL4Z.ltrans0.ltrans.o
                0x0800e350                __func__.5737.lto_priv.21
 *fill*         0x0800e35c        0x4 
 .rodata.default_config.lto_priv.240
                0x0800e360        0xc C:\Users\Ciccio\AppData\Local\Temp\ccXVDL4Z.ltrans0.ltrans.o
                0x0800e360                default_config.lto_priv.240
 *fill*         0x0800e36c        0x4 
 .rodata.pal_default_config
                0x0800e370       0xa8 C:\Users\Ciccio\AppData\Local\Temp\ccXVDL4Z.ltrans0.ltrans.o
                0x0800e370                pal_default_config
 *fill*         0x0800e418        0x8 
 .rodata.wa     0x0800e420       0x14 C:\Users\Ciccio\AppData\Local\Temp\ccXVDL4Z.ltrans0.ltrans.o
                0x0800e420                wa
 *fill*         0x0800e434        0xc 
 .rodata.__func__.5737.lto_priv.22
                0x0800e440        0xc C:\Users\Ciccio\AppData\Local\Temp\ccXVDL4Z.ltrans0.ltrans.o
                0x0800e440                __func__.5737.lto_priv.22
 *fill*         0x0800e44c        0x4 
 .rodata.testthd1
                0x0800e450       0x10 C:\Users\Ciccio\AppData\Local\Temp\ccXVDL4Z.ltrans0.ltrans.o
 .rodata.testthd2
                0x0800e460       0x10 C:\Users\Ciccio\AppData\Local\Temp\ccXVDL4Z.ltrans0.ltrans.o
 .rodata.testthd3
                0x0800e470       0x10 C:\Users\Ciccio\AppData\Local\Temp\ccXVDL4Z.ltrans0.ltrans.o
 .rodata.testthd4
                0x0800e480       0x10 C:\Users\Ciccio\AppData\Local\Temp\ccXVDL4Z.ltrans0.ltrans.o
 .rodata.patternthd
                0x0800e490       0x14 C:\Users\Ciccio\AppData\Local\Temp\ccXVDL4Z.ltrans0.ltrans.o
 *fill*         0x0800e4a4        0xc 
 .rodata.__func__.5737.lto_priv.23
                0x0800e4b0        0xc C:\Users\Ciccio\AppData\Local\Temp\ccXVDL4Z.ltrans0.ltrans.o
                0x0800e4b0                __func__.5737.lto_priv.23
 *fill*         0x0800e4bc        0x4 
 .rodata.testsem1
                0x0800e4c0       0x10 C:\Users\Ciccio\AppData\Local\Temp\ccXVDL4Z.ltrans0.ltrans.o
 .rodata.testsem2
                0x0800e4d0       0x10 C:\Users\Ciccio\AppData\Local\Temp\ccXVDL4Z.ltrans0.ltrans.o
 .rodata.testsem3
                0x0800e4e0       0x10 C:\Users\Ciccio\AppData\Local\Temp\ccXVDL4Z.ltrans0.ltrans.o
 .rodata.testsem4
                0x0800e4f0       0x10 C:\Users\Ciccio\AppData\Local\Temp\ccXVDL4Z.ltrans0.ltrans.o
 .rodata.patternsem
                0x0800e500       0x14 C:\Users\Ciccio\AppData\Local\Temp\ccXVDL4Z.ltrans0.ltrans.o
 *fill*         0x0800e514        0xc 
 .rodata.__func__.5737.lto_priv.24
                0x0800e520        0xc C:\Users\Ciccio\AppData\Local\Temp\ccXVDL4Z.ltrans0.ltrans.o
                0x0800e520                __func__.5737.lto_priv.24
 *fill*         0x0800e52c        0x4 
 .rodata.testmtx1
                0x0800e530       0x10 C:\Users\Ciccio\AppData\Local\Temp\ccXVDL4Z.ltrans0.ltrans.o
 .rodata.testmtx4
                0x0800e540       0x10 C:\Users\Ciccio\AppData\Local\Temp\ccXVDL4Z.ltrans0.ltrans.o
 .rodata.testmtx5
                0x0800e550       0x10 C:\Users\Ciccio\AppData\Local\Temp\ccXVDL4Z.ltrans0.ltrans.o
 .rodata.testmtx6
                0x0800e560       0x10 C:\Users\Ciccio\AppData\Local\Temp\ccXVDL4Z.ltrans0.ltrans.o
 .rodata.testmtx7
                0x0800e570       0x10 C:\Users\Ciccio\AppData\Local\Temp\ccXVDL4Z.ltrans0.ltrans.o
 .rodata.testmtx8
                0x0800e580       0x10 C:\Users\Ciccio\AppData\Local\Temp\ccXVDL4Z.ltrans0.ltrans.o
 .rodata.patternmtx
                0x0800e590       0x1c C:\Users\Ciccio\AppData\Local\Temp\ccXVDL4Z.ltrans0.ltrans.o
 *fill*         0x0800e5ac        0x4 
 .rodata.__func__.5737.lto_priv.25
                0x0800e5b0        0xc C:\Users\Ciccio\AppData\Local\Temp\ccXVDL4Z.ltrans0.ltrans.o
                0x0800e5b0                __func__.5737.lto_priv.25
 *fill*         0x0800e5bc        0x4 
 .rodata.testmsg1
                0x0800e5c0       0x10 C:\Users\Ciccio\AppData\Local\Temp\ccXVDL4Z.ltrans0.ltrans.o
 .rodata.patternmsg
                0x0800e5d0        0x8 C:\Users\Ciccio\AppData\Local\Temp\ccXVDL4Z.ltrans0.ltrans.o
 *fill*         0x0800e5d8        0x8 
 .rodata.testmbox1
                0x0800e5e0       0x10 C:\Users\Ciccio\AppData\Local\Temp\ccXVDL4Z.ltrans0.ltrans.o
 .rodata.patternmbox
                0x0800e5f0        0x8 C:\Users\Ciccio\AppData\Local\Temp\ccXVDL4Z.ltrans0.ltrans.o
 *fill*         0x0800e5f8        0x8 
 .rodata.__func__.5737.lto_priv.26
                0x0800e600        0xc C:\Users\Ciccio\AppData\Local\Temp\ccXVDL4Z.ltrans0.ltrans.o
                0x0800e600                __func__.5737.lto_priv.26
 *fill*         0x0800e60c        0x4 
 .rodata.evhndl.lto_priv.174
                0x0800e610        0xc C:\Users\Ciccio\AppData\Local\Temp\ccXVDL4Z.ltrans0.ltrans.o
                0x0800e610                evhndl.lto_priv.174
 *fill*         0x0800e61c        0x4 
 .rodata.testevt1
                0x0800e620       0x10 C:\Users\Ciccio\AppData\Local\Temp\ccXVDL4Z.ltrans0.ltrans.o
 .rodata.testevt2
                0x0800e630       0x10 C:\Users\Ciccio\AppData\Local\Temp\ccXVDL4Z.ltrans0.ltrans.o
 .rodata.testevt3
                0x0800e640       0x10 C:\Users\Ciccio\AppData\Local\Temp\ccXVDL4Z.ltrans0.ltrans.o
 .rodata.patternevt
                0x0800e650       0x10 C:\Users\Ciccio\AppData\Local\Temp\ccXVDL4Z.ltrans0.ltrans.o
 .rodata.__func__.5737.lto_priv.27
                0x0800e660        0xc C:\Users\Ciccio\AppData\Local\Temp\ccXVDL4Z.ltrans0.ltrans.o
                0x0800e660                __func__.5737.lto_priv.27
 *fill*         0x0800e66c        0x4 
 .rodata.testheap1
                0x0800e670       0x10 C:\Users\Ciccio\AppData\Local\Temp\ccXVDL4Z.ltrans0.ltrans.o
 .rodata.patternheap
                0x0800e680        0x8 C:\Users\Ciccio\AppData\Local\Temp\ccXVDL4Z.ltrans0.ltrans.o
 *fill*         0x0800e688        0x8 
 .rodata.testpools1
                0x0800e690       0x10 C:\Users\Ciccio\AppData\Local\Temp\ccXVDL4Z.ltrans0.ltrans.o
 .rodata.patternpools
                0x0800e6a0        0x8 C:\Users\Ciccio\AppData\Local\Temp\ccXVDL4Z.ltrans0.ltrans.o
 *fill*         0x0800e6a8        0x8 
 .rodata.testdyn1
                0x0800e6b0       0x10 C:\Users\Ciccio\AppData\Local\Temp\ccXVDL4Z.ltrans0.ltrans.o
 .rodata.testdyn2
                0x0800e6c0       0x10 C:\Users\Ciccio\AppData\Local\Temp\ccXVDL4Z.ltrans0.ltrans.o
 .rodata.testdyn3
                0x0800e6d0       0x10 C:\Users\Ciccio\AppData\Local\Temp\ccXVDL4Z.ltrans0.ltrans.o
 .rodata.patterndyn
                0x0800e6e0       0x10 C:\Users\Ciccio\AppData\Local\Temp\ccXVDL4Z.ltrans0.ltrans.o
 .rodata.testqueues1
                0x0800e6f0       0x10 C:\Users\Ciccio\AppData\Local\Temp\ccXVDL4Z.ltrans0.ltrans.o
 .rodata.testqueues2
                0x0800e700       0x10 C:\Users\Ciccio\AppData\Local\Temp\ccXVDL4Z.ltrans0.ltrans.o
 .rodata.patternqueues
                0x0800e710        0xc C:\Users\Ciccio\AppData\Local\Temp\ccXVDL4Z.ltrans0.ltrans.o
 *fill*         0x0800e71c        0x4 
 .rodata.__func__.5737.lto_priv.28
                0x0800e720        0xc C:\Users\Ciccio\AppData\Local\Temp\ccXVDL4Z.ltrans0.ltrans.o
                0x0800e720                __func__.5737.lto_priv.28
 *fill*         0x0800e72c        0x4 
 .rodata.testsys1
                0x0800e730       0x10 C:\Users\Ciccio\AppData\Local\Temp\ccXVDL4Z.ltrans0.ltrans.o
 .rodata.testsys2
                0x0800e740       0x10 C:\Users\Ciccio\AppData\Local\Temp\ccXVDL4Z.ltrans0.ltrans.o
 .rodata.testsys3
                0x0800e750       0x10 C:\Users\Ciccio\AppData\Local\Temp\ccXVDL4Z.ltrans0.ltrans.o
 .rodata.patternsys
                0x0800e760       0x10 C:\Users\Ciccio\AppData\Local\Temp\ccXVDL4Z.ltrans0.ltrans.o
 .rodata.__func__.5737.lto_priv.29
                0x0800e770        0xc C:\Users\Ciccio\AppData\Local\Temp\ccXVDL4Z.ltrans0.ltrans.o
                0x0800e770                __func__.5737.lto_priv.29
 *fill*         0x0800e77c        0x4 
 .rodata.testbmk1
                0x0800e780       0x10 C:\Users\Ciccio\AppData\Local\Temp\ccXVDL4Z.ltrans0.ltrans.o
 .rodata.testbmk2
                0x0800e790       0x10 C:\Users\Ciccio\AppData\Local\Temp\ccXVDL4Z.ltrans0.ltrans.o
 .rodata.testbmk3
                0x0800e7a0       0x10 C:\Users\Ciccio\AppData\Local\Temp\ccXVDL4Z.ltrans0.ltrans.o
 .rodata.testbmk4
                0x0800e7b0       0x10 C:\Users\Ciccio\AppData\Local\Temp\ccXVDL4Z.ltrans0.ltrans.o
 .rodata.testbmk5
                0x0800e7c0       0x10 C:\Users\Ciccio\AppData\Local\Temp\ccXVDL4Z.ltrans0.ltrans.o
 .rodata.testbmk6
                0x0800e7d0       0x10 C:\Users\Ciccio\AppData\Local\Temp\ccXVDL4Z.ltrans0.ltrans.o
 .rodata.testbmk7
                0x0800e7e0       0x10 C:\Users\Ciccio\AppData\Local\Temp\ccXVDL4Z.ltrans0.ltrans.o
 .rodata.testbmk8
                0x0800e7f0       0x10 C:\Users\Ciccio\AppData\Local\Temp\ccXVDL4Z.ltrans0.ltrans.o
 .rodata.testbmk9
                0x0800e800       0x10 C:\Users\Ciccio\AppData\Local\Temp\ccXVDL4Z.ltrans0.ltrans.o
 .rodata.testbmk10
                0x0800e810       0x10 C:\Users\Ciccio\AppData\Local\Temp\ccXVDL4Z.ltrans0.ltrans.o
 .rodata.testbmk11
                0x0800e820       0x10 C:\Users\Ciccio\AppData\Local\Temp\ccXVDL4Z.ltrans0.ltrans.o
 .rodata.testbmk12
                0x0800e830       0x10 C:\Users\Ciccio\AppData\Local\Temp\ccXVDL4Z.ltrans0.ltrans.o
 .rodata.testbmk13
                0x0800e840       0x10 C:\Users\Ciccio\AppData\Local\Temp\ccXVDL4Z.ltrans0.ltrans.o
 .rodata.patternbmk
                0x0800e850       0x38 C:\Users\Ciccio\AppData\Local\Temp\ccXVDL4Z.ltrans0.ltrans.o
 *fill*         0x0800e888        0x8 
 .rodata.__func__.5737.lto_priv.30
                0x0800e890        0xc C:\Users\Ciccio\AppData\Local\Temp\ccXVDL4Z.ltrans0.ltrans.o
                0x0800e890                __func__.5737.lto_priv.30
 *fill*         0x0800e89c        0x4 
 .rodata.PCA9685_I2C_CONFIG
                0x0800e8a0        0xc C:\Users\Ciccio\AppData\Local\Temp\ccXVDL4Z.ltrans0.ltrans.o
 *fill*         0x0800e8ac        0x4 
 .rodata._ctype_
                0x0800e8b0      0x101 c:/chibistudio/tools/gnu tools arm embedded/4.9 2015q3/bin/../lib/gcc/arm-none-eabi/4.9.3/../../../../arm-none-eabi/lib/armv7e-m\libg.a(lib_a-ctype_.o)
                0x0800e8b0                _ctype_
 *fill*         0x0800e9b1        0xf 
 .rodata.str1.4
                0x0800e9c0        0x4 c:/chibistudio/tools/gnu tools arm embedded/4.9 2015q3/bin/../lib/gcc/arm-none-eabi/4.9.3/../../../../arm-none-eabi/lib/armv7e-m\libg.a(lib_a-impure.o)
                                  0x2 (size before relaxing)
 *(.glue_7t)
 .glue_7t       0x00000000        0x0 linker stubs
 *(.glue_7)
 .glue_7        0x00000000        0x0 linker stubs
 *(.gcc*)

.vfp11_veneer   0x0800e9c4        0x0
 .vfp11_veneer  0x00000000        0x0 linker stubs

.v4_bx          0x0800e9c4        0x0
 .v4_bx         0x00000000        0x0 linker stubs

.iplt           0x0800e9c4        0x0
 .iplt          0x00000000        0x0 build/obj/crt0_v7m.o

.rel.dyn        0x0800e9c4        0x0
 .rel.iplt      0x00000000        0x0 build/obj/crt0_v7m.o

.ARM.extab
 *(.ARM.extab* .gnu.linkonce.armextab.*)

.ARM.exidx      0x0800e9c4        0x0
                0x0800e9c4                __exidx_start = .
 *(.ARM.exidx* .gnu.linkonce.armexidx.*)
                0x0800e9c4                __exidx_end = .

.eh_frame_hdr
 *(.eh_frame_hdr)

.eh_frame
 *(.eh_frame)

.textalign      0x0800e9c4        0x4
                0x0800e9c8                . = ALIGN (0x8)
 *fill*         0x0800e9c4        0x4 
                0x0800e9c8                . = ALIGN (0x4)
                0x0800e9c8                PROVIDE (_etext, .)

.mstack         0x20000000      0x400
                0x20000000                . = ALIGN (0x8)
                0x20000000                __main_stack_base__ = .
                0x20000400                . = (. + __main_stack_size__)
 *fill*         0x20000000      0x400 
                0x20000400                . = ALIGN (0x8)
                0x20000400                __main_stack_end__ = .

.pstack         0x20000400      0x400
                0x20000400                __process_stack_base__ = .
                0x20000400                __main_thread_stack_base__ = .
                0x20000800                . = (. + __process_stack_size__)
 *fill*         0x20000400      0x400 
                0x20000800                . = ALIGN (0x8)
                0x20000800                __process_stack_end__ = .
                0x20000800                __main_thread_stack_end__ = .

.data           0x20000800      0x52c load address 0x0800e9c8
                0x20000800                . = ALIGN (0x4)
                0x0800e9c8                PROVIDE (_textdata, LOADADDR (.data))
                0x20000800                PROVIDE (_data, .)
                0x0800e9c8                _textdata_start = LOADADDR (.data)
                0x20000800                _data_start = .
 *(.data)
 *(.data.*)
 .data.patterns.lto_priv.234
                0x20000800       0x34 C:\Users\Ciccio\AppData\Local\Temp\ccXVDL4Z.ltrans0.ltrans.o
                0x20000800                patterns.lto_priv.234
 .data.sem1.lto_priv.46
                0x20000834        0xc C:\Users\Ciccio\AppData\Local\Temp\ccXVDL4Z.ltrans0.ltrans.o
                0x20000834                sem1.lto_priv.46
 .data.m1.lto_priv.195
                0x20000840       0x10 C:\Users\Ciccio\AppData\Local\Temp\ccXVDL4Z.ltrans0.ltrans.o
                0x20000840                m1.lto_priv.195
 .data.m2.lto_priv.194
                0x20000850       0x10 C:\Users\Ciccio\AppData\Local\Temp\ccXVDL4Z.ltrans0.ltrans.o
                0x20000850                m2.lto_priv.194
 .data.c1.lto_priv.193
                0x20000860        0x8 C:\Users\Ciccio\AppData\Local\Temp\ccXVDL4Z.ltrans0.ltrans.o
                0x20000860                c1.lto_priv.193
 .data.mb1.lto_priv.179
                0x20000868       0x28 C:\Users\Ciccio\AppData\Local\Temp\ccXVDL4Z.ltrans0.ltrans.o
                0x20000868                mb1.lto_priv.179
 .data.es1.lto_priv.172
                0x20000890        0x4 C:\Users\Ciccio\AppData\Local\Temp\ccXVDL4Z.ltrans0.ltrans.o
                0x20000890                es1.lto_priv.172
 .data.es2.lto_priv.173
                0x20000894        0x4 C:\Users\Ciccio\AppData\Local\Temp\ccXVDL4Z.ltrans0.ltrans.o
                0x20000894                es2.lto_priv.173
 .data.mp1.lto_priv.62
                0x20000898        0xc C:\Users\Ciccio\AppData\Local\Temp\ccXVDL4Z.ltrans0.ltrans.o
                0x20000898                mp1.lto_priv.62
 .data.iq.lto_priv.167
                0x200008a4       0x24 C:\Users\Ciccio\AppData\Local\Temp\ccXVDL4Z.ltrans0.ltrans.o
                0x200008a4                iq.lto_priv.167
 .data.oq.lto_priv.162
                0x200008c8       0x24 C:\Users\Ciccio\AppData\Local\Temp\ccXVDL4Z.ltrans0.ltrans.o
                0x200008c8                oq.lto_priv.162
 .data.uartCfg  0x200008ec        0xc C:\Users\Ciccio\AppData\Local\Temp\ccXVDL4Z.ltrans0.ltrans.o
 .data.__ctype_ptr__
                0x200008f8        0x4 c:/chibistudio/tools/gnu tools arm embedded/4.9 2015q3/bin/../lib/gcc/arm-none-eabi/4.9.3/../../../../arm-none-eabi/lib/armv7e-m\libg.a(lib_a-ctype_.o)
                0x200008f8                __ctype_ptr__
 *fill*         0x200008fc        0x4 
 .data.impure_data
                0x20000900      0x428 c:/chibistudio/tools/gnu tools arm embedded/4.9 2015q3/bin/../lib/gcc/arm-none-eabi/4.9.3/../../../../arm-none-eabi/lib/armv7e-m\libg.a(lib_a-impure.o)
 .data._impure_ptr
                0x20000d28        0x4 c:/chibistudio/tools/gnu tools arm embedded/4.9 2015q3/bin/../lib/gcc/arm-none-eabi/4.9.3/../../../../arm-none-eabi/lib/armv7e-m\libg.a(lib_a-impure.o)
                0x20000d28                _impure_ptr
 *(.ramtext)
                0x20000d2c                . = ALIGN (0x4)
                0x20000d2c                PROVIDE (_edata, .)
                0x20000d2c                _data_end = .

.igot.plt       0x20000d2c        0x0 load address 0x0800eef4
 .igot.plt      0x00000000        0x0 build/obj/crt0_v7m.o

.bss            0x20000d30     0x18a8 load address 0x0800eef4
                0x20000d30                . = ALIGN (0x4)
                0x20000d30                _bss_start = .
 *(.bss)
 *(.bss.*)
 .bss.ch        0x20000d30      0x5d8 C:\Users\Ciccio\AppData\Local\Temp\ccXVDL4Z.ltrans0.ltrans.o
                0x20000d30                ch
 .bss.nextmem.lto_priv.336
                0x20001308        0x4 C:\Users\Ciccio\AppData\Local\Temp\ccXVDL4Z.ltrans0.ltrans.o
                0x20001308                nextmem.lto_priv.336
 .bss.endmem.lto_priv.335
                0x2000130c        0x4 C:\Users\Ciccio\AppData\Local\Temp\ccXVDL4Z.ltrans0.ltrans.o
                0x2000130c                endmem.lto_priv.335
 .bss.default_heap.lto_priv.332
                0x20001310       0x20 C:\Users\Ciccio\AppData\Local\Temp\ccXVDL4Z.ltrans0.ltrans.o
                0x20001310                default_heap.lto_priv.332
 .bss.dma_streams_mask.lto_priv.277
                0x20001330        0x4 C:\Users\Ciccio\AppData\Local\Temp\ccXVDL4Z.ltrans0.ltrans.o
                0x20001330                dma_streams_mask.lto_priv.277
 .bss.dma_isr_redir.lto_priv.279
                0x20001334       0x80 C:\Users\Ciccio\AppData\Local\Temp\ccXVDL4Z.ltrans0.ltrans.o
                0x20001334                dma_isr_redir.lto_priv.279
 .bss.I2CD1     0x200013b4       0x38 C:\Users\Ciccio\AppData\Local\Temp\ccXVDL4Z.ltrans0.ltrans.o
                0x200013b4                I2CD1
 .bss.I2CD2     0x200013ec       0x38 C:\Users\Ciccio\AppData\Local\Temp\ccXVDL4Z.ltrans0.ltrans.o
                0x200013ec                I2CD2
 .bss.I2CD3     0x20001424       0x38 C:\Users\Ciccio\AppData\Local\Temp\ccXVDL4Z.ltrans0.ltrans.o
                0x20001424                I2CD3
 .bss.SD2       0x2000145c       0x78 C:\Users\Ciccio\AppData\Local\Temp\ccXVDL4Z.ltrans0.ltrans.o
                0x2000145c                SD2
 .bss.test_global_fail
                0x200014d4        0x1 C:\Users\Ciccio\AppData\Local\Temp\ccXVDL4Z.ltrans0.ltrans.o
                0x200014d4                test_global_fail
 .bss.local_fail.lto_priv.235
                0x200014d5        0x1 C:\Users\Ciccio\AppData\Local\Temp\ccXVDL4Z.ltrans0.ltrans.o
                0x200014d5                local_fail.lto_priv.235
 *fill*         0x200014d6        0x2 
 .bss.failpoint.lto_priv.236
                0x200014d8        0x4 C:\Users\Ciccio\AppData\Local\Temp\ccXVDL4Z.ltrans0.ltrans.o
                0x200014d8                failpoint.lto_priv.236
 .bss.tokens_buffer.lto_priv.238
                0x200014dc       0x10 C:\Users\Ciccio\AppData\Local\Temp\ccXVDL4Z.ltrans0.ltrans.o
                0x200014dc                tokens_buffer.lto_priv.238
 .bss.tokp.lto_priv.239
                0x200014ec        0x4 C:\Users\Ciccio\AppData\Local\Temp\ccXVDL4Z.ltrans0.ltrans.o
                0x200014ec                tokp.lto_priv.239
 .bss.test      0x200014f0      0x708 C:\Users\Ciccio\AppData\Local\Temp\ccXVDL4Z.ltrans0.ltrans.o
                0x200014f0                test
 .bss.threads   0x20001bf8       0x14 C:\Users\Ciccio\AppData\Local\Temp\ccXVDL4Z.ltrans0.ltrans.o
                0x20001bf8                threads
 .bss.chp.lto_priv.233
                0x20001c0c        0x4 C:\Users\Ciccio\AppData\Local\Temp\ccXVDL4Z.ltrans0.ltrans.o
                0x20001c0c                chp.lto_priv.233
 .bss.test_timer_done
                0x20001c10        0x1 C:\Users\Ciccio\AppData\Local\Temp\ccXVDL4Z.ltrans0.ltrans.o
                0x20001c10                test_timer_done
 *fill*         0x20001c11        0x3 
 .bss.vt.lto_priv.237
                0x20001c14       0x14 C:\Users\Ciccio\AppData\Local\Temp\ccXVDL4Z.ltrans0.ltrans.o
                0x20001c14                vt.lto_priv.237
 .bss.test_heap.lto_priv.171
                0x20001c28       0x20 C:\Users\Ciccio\AppData\Local\Temp\ccXVDL4Z.ltrans0.ltrans.o
                0x20001c28                test_heap.lto_priv.171
 .bss.heap1.lto_priv.170
                0x20001c48       0x20 C:\Users\Ciccio\AppData\Local\Temp\ccXVDL4Z.ltrans0.ltrans.o
                0x20001c48                heap1.lto_priv.170
 .bss.mp1.lto_priv.63
                0x20001c68        0xc C:\Users\Ciccio\AppData\Local\Temp\ccXVDL4Z.ltrans0.ltrans.o
                0x20001c68                mp1.lto_priv.63
 .bss.sem1.lto_priv.47
                0x20001c74        0xc C:\Users\Ciccio\AppData\Local\Temp\ccXVDL4Z.ltrans0.ltrans.o
                0x20001c74                sem1.lto_priv.47
 .bss.mtx1.lto_priv.143
                0x20001c80       0x10 C:\Users\Ciccio\AppData\Local\Temp\ccXVDL4Z.ltrans0.ltrans.o
                0x20001c80                mtx1.lto_priv.143
 .bss.iq.6581.lto_priv.146
                0x20001c90       0x24 C:\Users\Ciccio\AppData\Local\Temp\ccXVDL4Z.ltrans0.ltrans.o
                0x20001c90                iq.6581.lto_priv.146
 .bss.ib.6580.lto_priv.147
                0x20001cb4       0x10 C:\Users\Ciccio\AppData\Local\Temp\ccXVDL4Z.ltrans0.ltrans.o
                0x20001cb4                ib.6580.lto_priv.147
 .bss.vt1.6591.lto_priv.144
                0x20001cc4       0x14 C:\Users\Ciccio\AppData\Local\Temp\ccXVDL4Z.ltrans0.ltrans.o
                0x20001cc4                vt1.6591.lto_priv.144
 .bss.vt2.6592.lto_priv.145
                0x20001cd8       0x14 C:\Users\Ciccio\AppData\Local\Temp\ccXVDL4Z.ltrans0.ltrans.o
                0x20001cd8                vt2.6592.lto_priv.145
 *fill*         0x20001cec        0x4 
 .bss.waRead    0x20001cf0      0x8e8 C:\Users\Ciccio\AppData\Local\Temp\ccXVDL4Z.ltrans0.ltrans.o
 *(COMMON)
                0x200025d8                . = ALIGN (0x4)
                0x200025d8                _bss_end = .
                0x200025d8                PROVIDE (end, .)

.ram0_init      0x200025d8        0x0 load address 0x0800eef4
                0x200025d8                . = ALIGN (0x4)
                0x0800eef4                __ram0_init_text__ = LOADADDR (.ram0_init)
                0x200025d8                __ram0_init__ = .
 *(.ram0_init)
 *(.ram0_init.*)
                0x200025d8                . = ALIGN (0x4)

.ram0           0x200025d8        0x0 load address 0x0800eef4
                0x200025d8                . = ALIGN (0x4)
                0x200025d8                __ram0_clear__ = .
 *(.ram0_clear)
 *(.ram0_clear.*)
                0x200025d8                . = ALIGN (0x4)
                0x200025d8                __ram0_noinit__ = .
 *(.ram0)
 *(.ram0.*)
                0x200025d8                . = ALIGN (0x4)
                0x200025d8                __ram0_free__ = .

.ram1_init      0x00000000        0x0 load address 0x0800eef4
                0x00000000                . = ALIGN (0x4)
                0x0800eef4                __ram1_init_text__ = LOADADDR (.ram1_init)
                0x00000000                __ram1_init__ = .
 *(.ram1_init)
 *(.ram1_init.*)
                0x00000000                . = ALIGN (0x4)

.ram1           0x00000000        0x0 load address 0x0800eef4
                0x00000000                . = ALIGN (0x4)
                0x00000000                __ram1_clear__ = .
 *(.ram1_clear)
 *(.ram1_clear.*)
                0x00000000                . = ALIGN (0x4)
                0x00000000                __ram1_noinit__ = .
 *(.ram1)
 *(.ram1.*)
                0x00000000                . = ALIGN (0x4)
                0x00000000                __ram1_free__ = .

.ram2_init      0x00000000        0x0 load address 0x0800eef4
                0x00000000                . = ALIGN (0x4)
                0x0800eef4                __ram2_init_text__ = LOADADDR (.ram2_init)
                0x00000000                __ram2_init__ = .
 *(.ram2_init)
 *(.ram2_init.*)
                0x00000000                . = ALIGN (0x4)

.ram2           0x00000000        0x0 load address 0x0800eef4
                0x00000000                . = ALIGN (0x4)
                0x00000000                __ram2_clear__ = .
 *(.ram2_clear)
 *(.ram2_clear.*)
                0x00000000                . = ALIGN (0x4)
                0x00000000                __ram2_noinit__ = .
 *(.ram2)
 *(.ram2.*)
                0x00000000                . = ALIGN (0x4)
                0x00000000                __ram2_free__ = .

.ram3_init      0x00000000        0x0 load address 0x0800eef4
                0x00000000                . = ALIGN (0x4)
                0x0800eef4                __ram3_init_text__ = LOADADDR (.ram3_init)
                0x00000000                __ram3_init__ = .
 *(.ram3_init)
 *(.ram3_init.*)
                0x00000000                . = ALIGN (0x4)

.ram3           0x00000000        0x0 load address 0x0800eef4
                0x00000000                . = ALIGN (0x4)
                0x00000000                __ram3_clear__ = .
 *(.ram3_clear)
 *(.ram3_clear.*)
                0x00000000                . = ALIGN (0x4)
                0x00000000                __ram3_noinit__ = .
 *(.ram3)
 *(.ram3.*)
                0x00000000                . = ALIGN (0x4)
                0x00000000                __ram3_free__ = .

.ram4_init      0x00000000        0x0 load address 0x0800eef4
                0x00000000                . = ALIGN (0x4)
                0x0800eef4                __ram4_init_text__ = LOADADDR (.ram4_init)
                0x00000000                __ram4_init__ = .
 *(.ram4_init)
 *(.ram4_init.*)
                0x00000000                . = ALIGN (0x4)

.ram4           0x00000000        0x0 load address 0x0800eef4
                0x00000000                . = ALIGN (0x4)
                0x00000000                __ram4_clear__ = .
 *(.ram4_clear)
 *(.ram4_clear.*)
                0x00000000                . = ALIGN (0x4)
                0x00000000                __ram4_noinit__ = .
 *(.ram4)
 *(.ram4.*)
                0x00000000                . = ALIGN (0x4)
                0x00000000                __ram4_free__ = .

.ram5_init      0x00000000        0x0 load address 0x0800eef4
                0x00000000                . = ALIGN (0x4)
                0x0800eef4                __ram5_init_text__ = LOADADDR (.ram5_init)
                0x00000000                __ram5_init__ = .
 *(.ram5_init)
 *(.ram5_init.*)
                0x00000000                . = ALIGN (0x4)

.ram5           0x00000000        0x0 load address 0x0800eef4
                0x00000000                . = ALIGN (0x4)
                0x00000000                __ram5_clear__ = .
 *(.ram5_clear)
 *(.ram5_clear.*)
                0x00000000                . = ALIGN (0x4)
                0x00000000                __ram5_noinit__ = .
 *(.ram5)
 *(.ram5.*)
                0x00000000                . = ALIGN (0x4)
                0x00000000                __ram5_free__ = .

.ram6_init      0x00000000        0x0 load address 0x0800eef4
                0x00000000                . = ALIGN (0x4)
                0x0800eef4                __ram6_init_text__ = LOADADDR (.ram6_init)
                0x00000000                __ram6_init__ = .
 *(.ram6_init)
 *(.ram6_init.*)
                0x00000000                . = ALIGN (0x4)

.ram6           0x00000000        0x0 load address 0x0800eef4
                0x00000000                . = ALIGN (0x4)
                0x00000000                __ram6_clear__ = .
 *(.ram6_clear)
 *(.ram6_clear.*)
                0x00000000                . = ALIGN (0x4)
                0x00000000                __ram6_noinit__ = .
 *(.ram6)
 *(.ram6.*)
                0x00000000                . = ALIGN (0x4)
                0x00000000                __ram6_free__ = .

.ram7_init      0x00000000        0x0 load address 0x0800eef4
                0x00000000                . = ALIGN (0x4)
                0x0800eef4                __ram7_init_text__ = LOADADDR (.ram7_init)
                0x00000000                __ram7_init__ = .
 *(.ram7_init)
 *(.ram7_init.*)
                0x00000000                . = ALIGN (0x4)

.ram7           0x00000000        0x0 load address 0x0800eef4
                0x00000000                . = ALIGN (0x4)
                0x00000000                __ram7_clear__ = .
 *(.ram7_clear)
 *(.ram7_clear.*)
                0x00000000                . = ALIGN (0x4)
                0x00000000                __ram7_noinit__ = .
 *(.ram7)
 *(.ram7.*)
                0x00000000                . = ALIGN (0x4)
                0x00000000                __ram7_free__ = .

.heap           0x200025d8    0x15a28
                0x200025d8                . = ALIGN (0x8)
                0x200025d8                __heap_base__ = .
                0x20018000                . = (ORIGIN (HEAP_RAM) + 0x18000)
 *fill*         0x200025d8    0x15a28 
                0x20018000                __heap_end__ = .
                0x00000400                __process_stack_size__ = 0x400
                0x00000400                __main_stack_size__ = 0x400
START GROUP
LOAD c:/chibistudio/tools/gnu tools arm embedded/4.9 2015q3/bin/../lib/gcc/arm-none-eabi/4.9.3/armv7e-m\libgcc.a
LOAD c:/chibistudio/tools/gnu tools arm embedded/4.9 2015q3/bin/../lib/gcc/arm-none-eabi/4.9.3/../../../../arm-none-eabi/lib/armv7e-m\libg.a
LOAD c:/chibistudio/tools/gnu tools arm embedded/4.9 2015q3/bin/../lib/gcc/arm-none-eabi/4.9.3/../../../../arm-none-eabi/lib/armv7e-m\libc.a
END GROUP
OUTPUT(build/ch.elf elf32-littlearm)

.ARM.attributes
                0x00000000       0x2f
 .ARM.attributes
                0x00000000       0x21 build/obj/crt0_v7m.o
 .ARM.attributes
                0x00000021       0x21 build/obj/chcoreasm_v7m.o
 .ARM.attributes
                0x00000042       0x31 C:\Users\Ciccio\AppData\Local\Temp\ccXVDL4Z.ltrans0.ltrans.o
 .ARM.attributes
                0x00000073       0x31 C:\Users\Ciccio\AppData\Local\Temp\ccXVDL4Z.ltrans1.ltrans.o
 .ARM.attributes
                0x000000a4       0x31 C:\Users\Ciccio\AppData\Local\Temp\ccXVDL4Z.ltrans2.ltrans.o
 .ARM.attributes
                0x000000d5       0x31 C:\Users\Ciccio\AppData\Local\Temp\ccXVDL4Z.ltrans3.ltrans.o
 .ARM.attributes
                0x00000106       0x31 C:\Users\Ciccio\AppData\Local\Temp\ccXVDL4Z.ltrans4.ltrans.o
 .ARM.attributes
                0x00000137       0x31 C:\Users\Ciccio\AppData\Local\Temp\ccXVDL4Z.ltrans5.ltrans.o
 .ARM.attributes
                0x00000168       0x31 C:\Users\Ciccio\AppData\Local\Temp\ccXVDL4Z.ltrans6.ltrans.o
 .ARM.attributes
                0x00000199       0x31 C:\Users\Ciccio\AppData\Local\Temp\ccXVDL4Z.ltrans7.ltrans.o
 .ARM.attributes
                0x000001ca       0x31 C:\Users\Ciccio\AppData\Local\Temp\ccXVDL4Z.ltrans8.ltrans.o
 .ARM.attributes
                0x000001fb       0x31 C:\Users\Ciccio\AppData\Local\Temp\ccXVDL4Z.ltrans9.ltrans.o
 .ARM.attributes
                0x0000022c       0x31 C:\Users\Ciccio\AppData\Local\Temp\ccXVDL4Z.ltrans10.ltrans.o
 .ARM.attributes
                0x0000025d       0x31 C:\Users\Ciccio\AppData\Local\Temp\ccXVDL4Z.ltrans11.ltrans.o
 .ARM.attributes
                0x0000028e       0x2e c:/chibistudio/tools/gnu tools arm embedded/4.9 2015q3/bin/../lib/gcc/arm-none-eabi/4.9.3/../../../../arm-none-eabi/lib/armv7e-m\libg.a(lib_a-atoi.o)
 .ARM.attributes
                0x000002bc       0x2e c:/chibistudio/tools/gnu tools arm embedded/4.9 2015q3/bin/../lib/gcc/arm-none-eabi/4.9.3/../../../../arm-none-eabi/lib/armv7e-m\libg.a(lib_a-strtol.o)
 .ARM.attributes
                0x000002ea       0x2e c:/chibistudio/tools/gnu tools arm embedded/4.9 2015q3/bin/../lib/gcc/arm-none-eabi/4.9.3/../../../../arm-none-eabi/lib/armv7e-m\libg.a(lib_a-ctype_.o)
 .ARM.attributes
                0x00000318       0x2e c:/chibistudio/tools/gnu tools arm embedded/4.9 2015q3/bin/../lib/gcc/arm-none-eabi/4.9.3/../../../../arm-none-eabi/lib/armv7e-m\libg.a(lib_a-impure.o)

.comment        0x00000000       0x70
 .comment       0x00000000       0x70 C:\Users\Ciccio\AppData\Local\Temp\ccXVDL4Z.ltrans0.ltrans.o
                                 0x71 (size before relaxing)
 .comment       0x00000000       0x71 C:\Users\Ciccio\AppData\Local\Temp\ccXVDL4Z.ltrans1.ltrans.o
 .comment       0x00000000       0x71 C:\Users\Ciccio\AppData\Local\Temp\ccXVDL4Z.ltrans2.ltrans.o
 .comment       0x00000000       0x71 C:\Users\Ciccio\AppData\Local\Temp\ccXVDL4Z.ltrans3.ltrans.o
 .comment       0x00000000       0x71 C:\Users\Ciccio\AppData\Local\Temp\ccXVDL4Z.ltrans4.ltrans.o
 .comment       0x00000000       0x71 C:\Users\Ciccio\AppData\Local\Temp\ccXVDL4Z.ltrans5.ltrans.o
 .comment       0x00000000       0x71 C:\Users\Ciccio\AppData\Local\Temp\ccXVDL4Z.ltrans6.ltrans.o
 .comment       0x00000000       0x71 C:\Users\Ciccio\AppData\Local\Temp\ccXVDL4Z.ltrans7.ltrans.o
 .comment       0x00000000       0x71 C:\Users\Ciccio\AppData\Local\Temp\ccXVDL4Z.ltrans8.ltrans.o
 .comment       0x00000000       0x71 C:\Users\Ciccio\AppData\Local\Temp\ccXVDL4Z.ltrans9.ltrans.o
 .comment       0x00000000       0x71 C:\Users\Ciccio\AppData\Local\Temp\ccXVDL4Z.ltrans10.ltrans.o
 .comment       0x00000000       0x71 C:\Users\Ciccio\AppData\Local\Temp\ccXVDL4Z.ltrans11.ltrans.o

.debug_info     0x00000000    0x10f50
 .debug_info    0x00000000     0x26c0 C:\Users\Ciccio\AppData\Local\Temp\ccXVDL4Z.ltrans0.ltrans.o
 .debug_info    0x000026c0     0x1038 C:\Users\Ciccio\AppData\Local\Temp\ccXVDL4Z.ltrans1.ltrans.o
 .debug_info    0x000036f8      0xae4 C:\Users\Ciccio\AppData\Local\Temp\ccXVDL4Z.ltrans2.ltrans.o
 .debug_info    0x000041dc      0x8e9 C:\Users\Ciccio\AppData\Local\Temp\ccXVDL4Z.ltrans3.ltrans.o
 .debug_info    0x00004ac5      0xbc8 C:\Users\Ciccio\AppData\Local\Temp\ccXVDL4Z.ltrans4.ltrans.o
 .debug_info    0x0000568d     0x15f4 C:\Users\Ciccio\AppData\Local\Temp\ccXVDL4Z.ltrans5.ltrans.o
 .debug_info    0x00006c81     0x192c C:\Users\Ciccio\AppData\Local\Temp\ccXVDL4Z.ltrans6.ltrans.o
 .debug_info    0x000085ad     0x1e5c C:\Users\Ciccio\AppData\Local\Temp\ccXVDL4Z.ltrans7.ltrans.o
 .debug_info    0x0000a409     0x1ab4 C:\Users\Ciccio\AppData\Local\Temp\ccXVDL4Z.ltrans8.ltrans.o
 .debug_info    0x0000bebd     0x19a4 C:\Users\Ciccio\AppData\Local\Temp\ccXVDL4Z.ltrans9.ltrans.o
 .debug_info    0x0000d861     0x1635 C:\Users\Ciccio\AppData\Local\Temp\ccXVDL4Z.ltrans10.ltrans.o
 .debug_info    0x0000ee96     0x20ba C:\Users\Ciccio\AppData\Local\Temp\ccXVDL4Z.ltrans11.ltrans.o

.debug_abbrev   0x00000000     0x2b64
 .debug_abbrev  0x00000000      0x39e C:\Users\Ciccio\AppData\Local\Temp\ccXVDL4Z.ltrans0.ltrans.o
 .debug_abbrev  0x0000039e      0x37e C:\Users\Ciccio\AppData\Local\Temp\ccXVDL4Z.ltrans1.ltrans.o
 .debug_abbrev  0x0000071c      0x2fc C:\Users\Ciccio\AppData\Local\Temp\ccXVDL4Z.ltrans2.ltrans.o
 .debug_abbrev  0x00000a18      0x287 C:\Users\Ciccio\AppData\Local\Temp\ccXVDL4Z.ltrans3.ltrans.o
 .debug_abbrev  0x00000c9f      0x2dd C:\Users\Ciccio\AppData\Local\Temp\ccXVDL4Z.ltrans4.ltrans.o
 .debug_abbrev  0x00000f7c      0x4df C:\Users\Ciccio\AppData\Local\Temp\ccXVDL4Z.ltrans5.ltrans.o
 .debug_abbrev  0x0000145b      0x413 C:\Users\Ciccio\AppData\Local\Temp\ccXVDL4Z.ltrans6.ltrans.o
 .debug_abbrev  0x0000186e      0x3be C:\Users\Ciccio\AppData\Local\Temp\ccXVDL4Z.ltrans7.ltrans.o
 .debug_abbrev  0x00001c2c      0x40f C:\Users\Ciccio\AppData\Local\Temp\ccXVDL4Z.ltrans8.ltrans.o
 .debug_abbrev  0x0000203b      0x312 C:\Users\Ciccio\AppData\Local\Temp\ccXVDL4Z.ltrans9.ltrans.o
 .debug_abbrev  0x0000234d      0x38f C:\Users\Ciccio\AppData\Local\Temp\ccXVDL4Z.ltrans10.ltrans.o
 .debug_abbrev  0x000026dc      0x488 C:\Users\Ciccio\AppData\Local\Temp\ccXVDL4Z.ltrans11.ltrans.o

.debug_aranges  0x00000000     0x1990
 .debug_aranges
                0x00000000       0xc0 C:\Users\Ciccio\AppData\Local\Temp\ccXVDL4Z.ltrans0.ltrans.o
 .debug_aranges
                0x000000c0      0x208 C:\Users\Ciccio\AppData\Local\Temp\ccXVDL4Z.ltrans1.ltrans.o
 .debug_aranges
                0x000002c8      0x130 C:\Users\Ciccio\AppData\Local\Temp\ccXVDL4Z.ltrans2.ltrans.o
 .debug_aranges
                0x000003f8       0xe0 C:\Users\Ciccio\AppData\Local\Temp\ccXVDL4Z.ltrans3.ltrans.o
 .debug_aranges
                0x000004d8      0x188 C:\Users\Ciccio\AppData\Local\Temp\ccXVDL4Z.ltrans4.ltrans.o
 .debug_aranges
                0x00000660      0x270 C:\Users\Ciccio\AppData\Local\Temp\ccXVDL4Z.ltrans5.ltrans.o
 .debug_aranges
                0x000008d0      0x208 C:\Users\Ciccio\AppData\Local\Temp\ccXVDL4Z.ltrans6.ltrans.o
 .debug_aranges
                0x00000ad8      0x2a0 C:\Users\Ciccio\AppData\Local\Temp\ccXVDL4Z.ltrans7.ltrans.o
 .debug_aranges
                0x00000d78      0x2a8 C:\Users\Ciccio\AppData\Local\Temp\ccXVDL4Z.ltrans8.ltrans.o
 .debug_aranges
                0x00001020      0x270 C:\Users\Ciccio\AppData\Local\Temp\ccXVDL4Z.ltrans9.ltrans.o
 .debug_aranges
                0x00001290      0x280 C:\Users\Ciccio\AppData\Local\Temp\ccXVDL4Z.ltrans10.ltrans.o
 .debug_aranges
                0x00001510      0x480 C:\Users\Ciccio\AppData\Local\Temp\ccXVDL4Z.ltrans11.ltrans.o

.debug_ranges   0x00000000     0x18d0
 .debug_ranges  0x00000000       0xb0 C:\Users\Ciccio\AppData\Local\Temp\ccXVDL4Z.ltrans0.ltrans.o
 .debug_ranges  0x000000b0      0x1f8 C:\Users\Ciccio\AppData\Local\Temp\ccXVDL4Z.ltrans1.ltrans.o
 .debug_ranges  0x000002a8      0x120 C:\Users\Ciccio\AppData\Local\Temp\ccXVDL4Z.ltrans2.ltrans.o
 .debug_ranges  0x000003c8       0xd0 C:\Users\Ciccio\AppData\Local\Temp\ccXVDL4Z.ltrans3.ltrans.o
 .debug_ranges  0x00000498      0x178 C:\Users\Ciccio\AppData\Local\Temp\ccXVDL4Z.ltrans4.ltrans.o
 .debug_ranges  0x00000610      0x260 C:\Users\Ciccio\AppData\Local\Temp\ccXVDL4Z.ltrans5.ltrans.o
 .debug_ranges  0x00000870      0x1f8 C:\Users\Ciccio\AppData\Local\Temp\ccXVDL4Z.ltrans6.ltrans.o
 .debug_ranges  0x00000a68      0x290 C:\Users\Ciccio\AppData\Local\Temp\ccXVDL4Z.ltrans7.ltrans.o
 .debug_ranges  0x00000cf8      0x298 C:\Users\Ciccio\AppData\Local\Temp\ccXVDL4Z.ltrans8.ltrans.o
 .debug_ranges  0x00000f90      0x260 C:\Users\Ciccio\AppData\Local\Temp\ccXVDL4Z.ltrans9.ltrans.o
 .debug_ranges  0x000011f0      0x270 C:\Users\Ciccio\AppData\Local\Temp\ccXVDL4Z.ltrans10.ltrans.o
 .debug_ranges  0x00001460      0x470 C:\Users\Ciccio\AppData\Local\Temp\ccXVDL4Z.ltrans11.ltrans.o

.debug_line     0x00000000     0x7961
 .debug_line    0x00000000      0x956 C:\Users\Ciccio\AppData\Local\Temp\ccXVDL4Z.ltrans0.ltrans.o
 .debug_line    0x00000956      0x917 C:\Users\Ciccio\AppData\Local\Temp\ccXVDL4Z.ltrans1.ltrans.o
 .debug_line    0x0000126d      0x64f C:\Users\Ciccio\AppData\Local\Temp\ccXVDL4Z.ltrans2.ltrans.o
 .debug_line    0x000018bc      0x547 C:\Users\Ciccio\AppData\Local\Temp\ccXVDL4Z.ltrans3.ltrans.o
 .debug_line    0x00001e03      0x6eb C:\Users\Ciccio\AppData\Local\Temp\ccXVDL4Z.ltrans4.ltrans.o
 .debug_line    0x000024ee      0xb0c C:\Users\Ciccio\AppData\Local\Temp\ccXVDL4Z.ltrans5.ltrans.o
 .debug_line    0x00002ffa      0xa9e C:\Users\Ciccio\AppData\Local\Temp\ccXVDL4Z.ltrans6.ltrans.o
 .debug_line    0x00003a98      0xc8f C:\Users\Ciccio\AppData\Local\Temp\ccXVDL4Z.ltrans7.ltrans.o
 .debug_line    0x00004727      0xc2c C:\Users\Ciccio\AppData\Local\Temp\ccXVDL4Z.ltrans8.ltrans.o
 .debug_line    0x00005353      0xa82 C:\Users\Ciccio\AppData\Local\Temp\ccXVDL4Z.ltrans9.ltrans.o
 .debug_line    0x00005dd5      0xa93 C:\Users\Ciccio\AppData\Local\Temp\ccXVDL4Z.ltrans10.ltrans.o
 .debug_line    0x00006868     0x10f9 C:\Users\Ciccio\AppData\Local\Temp\ccXVDL4Z.ltrans11.ltrans.o

.debug_str      0x00000000     0x5111
 .debug_str     0x00000000     0x14d1 C:\Users\Ciccio\AppData\Local\Temp\ccXVDL4Z.ltrans0.ltrans.o
                               0x15fc (size before relaxing)
 .debug_str     0x000014d1      0x5c1 C:\Users\Ciccio\AppData\Local\Temp\ccXVDL4Z.ltrans1.ltrans.o
                                0xac4 (size before relaxing)
 .debug_str     0x00001a92      0x35e C:\Users\Ciccio\AppData\Local\Temp\ccXVDL4Z.ltrans2.ltrans.o
                                0x88c (size before relaxing)
 .debug_str     0x00001df0      0x1cb C:\Users\Ciccio\AppData\Local\Temp\ccXVDL4Z.ltrans3.ltrans.o
                                0x6fe (size before relaxing)
 .debug_str     0x00001fbb      0x3e3 C:\Users\Ciccio\AppData\Local\Temp\ccXVDL4Z.ltrans4.ltrans.o
                                0x8ff (size before relaxing)
 .debug_str     0x0000239e      0x44e C:\Users\Ciccio\AppData\Local\Temp\ccXVDL4Z.ltrans5.ltrans.o
                                0xc16 (size before relaxing)
 .debug_str     0x000027ec      0x455 C:\Users\Ciccio\AppData\Local\Temp\ccXVDL4Z.ltrans6.ltrans.o
                                0xda0 (size before relaxing)
 .debug_str     0x00002c41      0x63e C:\Users\Ciccio\AppData\Local\Temp\ccXVDL4Z.ltrans7.ltrans.o
                                0xfb1 (size before relaxing)
 .debug_str     0x0000327f      0x6a6 C:\Users\Ciccio\AppData\Local\Temp\ccXVDL4Z.ltrans8.ltrans.o
                                0xd74 (size before relaxing)
 .debug_str     0x00003925      0x646 C:\Users\Ciccio\AppData\Local\Temp\ccXVDL4Z.ltrans9.ltrans.o
                                0xceb (size before relaxing)
 .debug_str     0x00003f6b      0x5d7 C:\Users\Ciccio\AppData\Local\Temp\ccXVDL4Z.ltrans10.ltrans.o
                                0xb85 (size before relaxing)
 .debug_str     0x00004542      0xbcf C:\Users\Ciccio\AppData\Local\Temp\ccXVDL4Z.ltrans11.ltrans.o
                               0x12d2 (size before relaxing)

.debug_frame    0x00000000     0x4ff8
 .debug_frame   0x00000000      0x274 C:\Users\Ciccio\AppData\Local\Temp\ccXVDL4Z.ltrans0.ltrans.o
 .debug_frame   0x00000274      0x664 C:\Users\Ciccio\AppData\Local\Temp\ccXVDL4Z.ltrans1.ltrans.o
 .debug_frame   0x000008d8      0x39c C:\Users\Ciccio\AppData\Local\Temp\ccXVDL4Z.ltrans2.ltrans.o
 .debug_frame   0x00000c74      0x290 C:\Users\Ciccio\AppData\Local\Temp\ccXVDL4Z.ltrans3.ltrans.o
 .debug_frame   0x00000f04      0x4c8 C:\Users\Ciccio\AppData\Local\Temp\ccXVDL4Z.ltrans4.ltrans.o
 .debug_frame   0x000013cc      0x780 C:\Users\Ciccio\AppData\Local\Temp\ccXVDL4Z.ltrans5.ltrans.o
 .debug_frame   0x00001b4c      0x62c C:\Users\Ciccio\AppData\Local\Temp\ccXVDL4Z.ltrans6.ltrans.o
 .debug_frame   0x00002178      0x870 C:\Users\Ciccio\AppData\Local\Temp\ccXVDL4Z.ltrans7.ltrans.o
 .debug_frame   0x000029e8      0x848 C:\Users\Ciccio\AppData\Local\Temp\ccXVDL4Z.ltrans8.ltrans.o
 .debug_frame   0x00003230      0x7f4 C:\Users\Ciccio\AppData\Local\Temp\ccXVDL4Z.ltrans9.ltrans.o
 .debug_frame   0x00003a24      0x7b8 C:\Users\Ciccio\AppData\Local\Temp\ccXVDL4Z.ltrans10.ltrans.o
 .debug_frame   0x000041dc      0xd98 C:\Users\Ciccio\AppData\Local\Temp\ccXVDL4Z.ltrans11.ltrans.o
 .debug_frame   0x00004f74       0x30 c:/chibistudio/tools/gnu tools arm embedded/4.9 2015q3/bin/../lib/gcc/arm-none-eabi/4.9.3/../../../../arm-none-eabi/lib/armv7e-m\libg.a(lib_a-atoi.o)
 .debug_frame   0x00004fa4       0x54 c:/chibistudio/tools/gnu tools arm embedded/4.9 2015q3/bin/../lib/gcc/arm-none-eabi/4.9.3/../../../../arm-none-eabi/lib/armv7e-m\libg.a(lib_a-strtol.o)

Cross Reference Table

Symbol                                            File
BusFault_Handler                                  C:\Users\Ciccio\AppData\Local\Temp\ccXVDL4Z.ltrans11.ltrans.o
                                                  build/obj/vectors.o (symbol from plugin)
                                                  C:\Users\Ciccio\AppData\Local\Temp\ccXVDL4Z.ltrans0.ltrans.o
DebugMon_Handler                                  C:\Users\Ciccio\AppData\Local\Temp\ccXVDL4Z.ltrans11.ltrans.o
                                                  build/obj/vectors.o (symbol from plugin)
                                                  C:\Users\Ciccio\AppData\Local\Temp\ccXVDL4Z.ltrans0.ltrans.o
HardFault_Handler                                 C:\Users\Ciccio\AppData\Local\Temp\ccXVDL4Z.ltrans11.ltrans.o
                                                  build/obj/vectors.o (symbol from plugin)
                                                  C:\Users\Ciccio\AppData\Local\Temp\ccXVDL4Z.ltrans0.ltrans.o
I2CD1                                             C:\Users\Ciccio\AppData\Local\Temp\ccXVDL4Z.ltrans0.ltrans.o
                                                  build/obj/i2c_lld.o (symbol from plugin)
                                                  C:\Users\Ciccio\AppData\Local\Temp\ccXVDL4Z.ltrans6.ltrans.o
                                                  build/obj/main.o (symbol from plugin)
I2CD2                                             C:\Users\Ciccio\AppData\Local\Temp\ccXVDL4Z.ltrans0.ltrans.o
                                                  build/obj/i2c_lld.o (symbol from plugin)
                                                  C:\Users\Ciccio\AppData\Local\Temp\ccXVDL4Z.ltrans6.ltrans.o
I2CD3                                             C:\Users\Ciccio\AppData\Local\Temp\ccXVDL4Z.ltrans0.ltrans.o
                                                  build/obj/i2c_lld.o (symbol from plugin)
                                                  C:\Users\Ciccio\AppData\Local\Temp\ccXVDL4Z.ltrans6.ltrans.o
MemManage_Handler                                 C:\Users\Ciccio\AppData\Local\Temp\ccXVDL4Z.ltrans11.ltrans.o
                                                  build/obj/vectors.o (symbol from plugin)
                                                  C:\Users\Ciccio\AppData\Local\Temp\ccXVDL4Z.ltrans0.ltrans.o
NMI_Handler                                       C:\Users\Ciccio\AppData\Local\Temp\ccXVDL4Z.ltrans11.ltrans.o
                                                  build/obj/vectors.o (symbol from plugin)
                                                  C:\Users\Ciccio\AppData\Local\Temp\ccXVDL4Z.ltrans0.ltrans.o
PendSV_Handler                                    C:\Users\Ciccio\AppData\Local\Temp\ccXVDL4Z.ltrans11.ltrans.o
                                                  build/obj/vectors.o (symbol from plugin)
                                                  C:\Users\Ciccio\AppData\Local\Temp\ccXVDL4Z.ltrans0.ltrans.o
Reset_Handler                                     build/obj/crt0_v7m.o
                                                  C:\Users\Ciccio\AppData\Local\Temp\ccXVDL4Z.ltrans0.ltrans.o
                                                  build/obj/vectors.o (symbol from plugin)
SD2                                               C:\Users\Ciccio\AppData\Local\Temp\ccXVDL4Z.ltrans0.ltrans.o
                                                  build/obj/serial_lld.o (symbol from plugin)
                                                  C:\Users\Ciccio\AppData\Local\Temp\ccXVDL4Z.ltrans5.ltrans.o
                                                  build/obj/main.o (symbol from plugin)
SVC_Handler                                       C:\Users\Ciccio\AppData\Local\Temp\ccXVDL4Z.ltrans8.ltrans.o
                                                  build/obj/chcore_v7m.o (symbol from plugin)
                                                  build/obj/vectors.o (symbol from plugin)
                                                  C:\Users\Ciccio\AppData\Local\Temp\ccXVDL4Z.ltrans0.ltrans.o
SysTick_Handler                                   C:\Users\Ciccio\AppData\Local\Temp\ccXVDL4Z.ltrans11.ltrans.o
                                                  build/obj/vectors.o (symbol from plugin)
                                                  C:\Users\Ciccio\AppData\Local\Temp\ccXVDL4Z.ltrans0.ltrans.o
SystemCoreClock                                   build/obj/hal_lld.o (symbol from plugin)
TestThread                                        C:\Users\Ciccio\AppData\Local\Temp\ccXVDL4Z.ltrans5.ltrans.o
                                                  build/obj/test.o (symbol from plugin)
                                                  C:\Users\Ciccio\AppData\Local\Temp\ccXVDL4Z.ltrans0.ltrans.o
                                                  build/obj/main.o (symbol from plugin)
UsageFault_Handler                                C:\Users\Ciccio\AppData\Local\Temp\ccXVDL4Z.ltrans11.ltrans.o
                                                  build/obj/vectors.o (symbol from plugin)
                                                  C:\Users\Ciccio\AppData\Local\Temp\ccXVDL4Z.ltrans0.ltrans.o
Vector100                                         C:\Users\Ciccio\AppData\Local\Temp\ccXVDL4Z.ltrans11.ltrans.o
                                                  build/obj/vectors.o (symbol from plugin)
                                                  C:\Users\Ciccio\AppData\Local\Temp\ccXVDL4Z.ltrans0.ltrans.o
Vector104                                         C:\Users\Ciccio\AppData\Local\Temp\ccXVDL4Z.ltrans11.ltrans.o
                                                  build/obj/vectors.o (symbol from plugin)
                                                  C:\Users\Ciccio\AppData\Local\Temp\ccXVDL4Z.ltrans0.ltrans.o
Vector108                                         C:\Users\Ciccio\AppData\Local\Temp\ccXVDL4Z.ltrans11.ltrans.o
                                                  build/obj/vectors.o (symbol from plugin)
                                                  C:\Users\Ciccio\AppData\Local\Temp\ccXVDL4Z.ltrans0.ltrans.o
Vector10C                                         C:\Users\Ciccio\AppData\Local\Temp\ccXVDL4Z.ltrans11.ltrans.o
                                                  build/obj/vectors.o (symbol from plugin)
                                                  C:\Users\Ciccio\AppData\Local\Temp\ccXVDL4Z.ltrans0.ltrans.o
Vector110                                         C:\Users\Ciccio\AppData\Local\Temp\ccXVDL4Z.ltrans11.ltrans.o
                                                  build/obj/vectors.o (symbol from plugin)
                                                  C:\Users\Ciccio\AppData\Local\Temp\ccXVDL4Z.ltrans0.ltrans.o
Vector114                                         C:\Users\Ciccio\AppData\Local\Temp\ccXVDL4Z.ltrans11.ltrans.o
                                                  build/obj/vectors.o (symbol from plugin)
                                                  C:\Users\Ciccio\AppData\Local\Temp\ccXVDL4Z.ltrans0.ltrans.o
Vector118                                         C:\Users\Ciccio\AppData\Local\Temp\ccXVDL4Z.ltrans11.ltrans.o
                                                  build/obj/vectors.o (symbol from plugin)
                                                  C:\Users\Ciccio\AppData\Local\Temp\ccXVDL4Z.ltrans0.ltrans.o
Vector11C                                         C:\Users\Ciccio\AppData\Local\Temp\ccXVDL4Z.ltrans11.ltrans.o
                                                  build/obj/vectors.o (symbol from plugin)
                                                  C:\Users\Ciccio\AppData\Local\Temp\ccXVDL4Z.ltrans0.ltrans.o
Vector120                                         C:\Users\Ciccio\AppData\Local\Temp\ccXVDL4Z.ltrans7.ltrans.o
                                                  build/obj/stm32_dma.o (symbol from plugin)
                                                  build/obj/vectors.o (symbol from plugin)
                                                  C:\Users\Ciccio\AppData\Local\Temp\ccXVDL4Z.ltrans0.ltrans.o
Vector124                                         C:\Users\Ciccio\AppData\Local\Temp\ccXVDL4Z.ltrans7.ltrans.o
                                                  build/obj/stm32_dma.o (symbol from plugin)
                                                  build/obj/vectors.o (symbol from plugin)
                                                  C:\Users\Ciccio\AppData\Local\Temp\ccXVDL4Z.ltrans0.ltrans.o
Vector128                                         C:\Users\Ciccio\AppData\Local\Temp\ccXVDL4Z.ltrans7.ltrans.o
                                                  build/obj/stm32_dma.o (symbol from plugin)
                                                  build/obj/vectors.o (symbol from plugin)
                                                  C:\Users\Ciccio\AppData\Local\Temp\ccXVDL4Z.ltrans0.ltrans.o
Vector12C                                         C:\Users\Ciccio\AppData\Local\Temp\ccXVDL4Z.ltrans7.ltrans.o
                                                  build/obj/stm32_dma.o (symbol from plugin)
                                                  build/obj/vectors.o (symbol from plugin)
                                                  C:\Users\Ciccio\AppData\Local\Temp\ccXVDL4Z.ltrans0.ltrans.o
Vector130                                         C:\Users\Ciccio\AppData\Local\Temp\ccXVDL4Z.ltrans7.ltrans.o
                                                  build/obj/stm32_dma.o (symbol from plugin)
                                                  build/obj/vectors.o (symbol from plugin)
                                                  C:\Users\Ciccio\AppData\Local\Temp\ccXVDL4Z.ltrans0.ltrans.o
Vector134                                         C:\Users\Ciccio\AppData\Local\Temp\ccXVDL4Z.ltrans11.ltrans.o
                                                  build/obj/vectors.o (symbol from plugin)
                                                  C:\Users\Ciccio\AppData\Local\Temp\ccXVDL4Z.ltrans0.ltrans.o
Vector138                                         C:\Users\Ciccio\AppData\Local\Temp\ccXVDL4Z.ltrans11.ltrans.o
                                                  build/obj/vectors.o (symbol from plugin)
                                                  C:\Users\Ciccio\AppData\Local\Temp\ccXVDL4Z.ltrans0.ltrans.o
Vector13C                                         C:\Users\Ciccio\AppData\Local\Temp\ccXVDL4Z.ltrans11.ltrans.o
                                                  build/obj/vectors.o (symbol from plugin)
                                                  C:\Users\Ciccio\AppData\Local\Temp\ccXVDL4Z.ltrans0.ltrans.o
Vector140                                         C:\Users\Ciccio\AppData\Local\Temp\ccXVDL4Z.ltrans11.ltrans.o
                                                  build/obj/vectors.o (symbol from plugin)
                                                  C:\Users\Ciccio\AppData\Local\Temp\ccXVDL4Z.ltrans0.ltrans.o
Vector144                                         C:\Users\Ciccio\AppData\Local\Temp\ccXVDL4Z.ltrans11.ltrans.o
                                                  build/obj/vectors.o (symbol from plugin)
                                                  C:\Users\Ciccio\AppData\Local\Temp\ccXVDL4Z.ltrans0.ltrans.o
Vector148                                         C:\Users\Ciccio\AppData\Local\Temp\ccXVDL4Z.ltrans11.ltrans.o
                                                  build/obj/vectors.o (symbol from plugin)
                                                  C:\Users\Ciccio\AppData\Local\Temp\ccXVDL4Z.ltrans0.ltrans.o
Vector14C                                         C:\Users\Ciccio\AppData\Local\Temp\ccXVDL4Z.ltrans11.ltrans.o
                                                  build/obj/vectors.o (symbol from plugin)
                                                  C:\Users\Ciccio\AppData\Local\Temp\ccXVDL4Z.ltrans0.ltrans.o
Vector150                                         C:\Users\Ciccio\AppData\Local\Temp\ccXVDL4Z.ltrans7.ltrans.o
                                                  build/obj/stm32_dma.o (symbol from plugin)
                                                  build/obj/vectors.o (symbol from plugin)
                                                  C:\Users\Ciccio\AppData\Local\Temp\ccXVDL4Z.ltrans0.ltrans.o
Vector154                                         C:\Users\Ciccio\AppData\Local\Temp\ccXVDL4Z.ltrans7.ltrans.o
                                                  build/obj/stm32_dma.o (symbol from plugin)
                                                  build/obj/vectors.o (symbol from plugin)
                                                  C:\Users\Ciccio\AppData\Local\Temp\ccXVDL4Z.ltrans0.ltrans.o
Vector158                                         C:\Users\Ciccio\AppData\Local\Temp\ccXVDL4Z.ltrans7.ltrans.o
                                                  build/obj/stm32_dma.o (symbol from plugin)
                                                  build/obj/vectors.o (symbol from plugin)
                                                  C:\Users\Ciccio\AppData\Local\Temp\ccXVDL4Z.ltrans0.ltrans.o
Vector15C                                         C:\Users\Ciccio\AppData\Local\Temp\ccXVDL4Z.ltrans11.ltrans.o
                                                  build/obj/vectors.o (symbol from plugin)
                                                  C:\Users\Ciccio\AppData\Local\Temp\ccXVDL4Z.ltrans0.ltrans.o
Vector160                                         C:\Users\Ciccio\AppData\Local\Temp\ccXVDL4Z.ltrans6.ltrans.o
                                                  build/obj/i2c_lld.o (symbol from plugin)
                                                  build/obj/vectors.o (symbol from plugin)
                                                  C:\Users\Ciccio\AppData\Local\Temp\ccXVDL4Z.ltrans0.ltrans.o
Vector164                                         C:\Users\Ciccio\AppData\Local\Temp\ccXVDL4Z.ltrans6.ltrans.o
                                                  build/obj/i2c_lld.o (symbol from plugin)
                                                  build/obj/vectors.o (symbol from plugin)
                                                  C:\Users\Ciccio\AppData\Local\Temp\ccXVDL4Z.ltrans0.ltrans.o
Vector168                                         C:\Users\Ciccio\AppData\Local\Temp\ccXVDL4Z.ltrans11.ltrans.o
                                                  build/obj/vectors.o (symbol from plugin)
                                                  C:\Users\Ciccio\AppData\Local\Temp\ccXVDL4Z.ltrans0.ltrans.o
Vector16C                                         C:\Users\Ciccio\AppData\Local\Temp\ccXVDL4Z.ltrans11.ltrans.o
                                                  build/obj/vectors.o (symbol from plugin)
                                                  C:\Users\Ciccio\AppData\Local\Temp\ccXVDL4Z.ltrans0.ltrans.o
Vector170                                         C:\Users\Ciccio\AppData\Local\Temp\ccXVDL4Z.ltrans11.ltrans.o
                                                  build/obj/vectors.o (symbol from plugin)
                                                  C:\Users\Ciccio\AppData\Local\Temp\ccXVDL4Z.ltrans0.ltrans.o
Vector174                                         C:\Users\Ciccio\AppData\Local\Temp\ccXVDL4Z.ltrans11.ltrans.o
                                                  build/obj/vectors.o (symbol from plugin)
                                                  C:\Users\Ciccio\AppData\Local\Temp\ccXVDL4Z.ltrans0.ltrans.o
Vector178                                         C:\Users\Ciccio\AppData\Local\Temp\ccXVDL4Z.ltrans11.ltrans.o
                                                  build/obj/vectors.o (symbol from plugin)
                                                  C:\Users\Ciccio\AppData\Local\Temp\ccXVDL4Z.ltrans0.ltrans.o
Vector17C                                         C:\Users\Ciccio\AppData\Local\Temp\ccXVDL4Z.ltrans11.ltrans.o
                                                  build/obj/vectors.o (symbol from plugin)
                                                  C:\Users\Ciccio\AppData\Local\Temp\ccXVDL4Z.ltrans0.ltrans.o
Vector180                                         C:\Users\Ciccio\AppData\Local\Temp\ccXVDL4Z.ltrans11.ltrans.o
                                                  build/obj/vectors.o (symbol from plugin)
                                                  C:\Users\Ciccio\AppData\Local\Temp\ccXVDL4Z.ltrans0.ltrans.o
Vector184                                         C:\Users\Ciccio\AppData\Local\Temp\ccXVDL4Z.ltrans11.ltrans.o
                                                  build/obj/vectors.o (symbol from plugin)
                                                  C:\Users\Ciccio\AppData\Local\Temp\ccXVDL4Z.ltrans0.ltrans.o
Vector188                                         C:\Users\Ciccio\AppData\Local\Temp\ccXVDL4Z.ltrans11.ltrans.o
                                                  build/obj/vectors.o (symbol from plugin)
                                                  C:\Users\Ciccio\AppData\Local\Temp\ccXVDL4Z.ltrans0.ltrans.o
Vector18C                                         C:\Users\Ciccio\AppData\Local\Temp\ccXVDL4Z.ltrans11.ltrans.o
                                                  build/obj/vectors.o (symbol from plugin)
                                                  C:\Users\Ciccio\AppData\Local\Temp\ccXVDL4Z.ltrans0.ltrans.o
Vector190                                         C:\Users\Ciccio\AppData\Local\Temp\ccXVDL4Z.ltrans11.ltrans.o
                                                  build/obj/vectors.o (symbol from plugin)
                                                  C:\Users\Ciccio\AppData\Local\Temp\ccXVDL4Z.ltrans0.ltrans.o
Vector194                                         C:\Users\Ciccio\AppData\Local\Temp\ccXVDL4Z.ltrans11.ltrans.o
                                                  build/obj/vectors.o (symbol from plugin)
                                                  C:\Users\Ciccio\AppData\Local\Temp\ccXVDL4Z.ltrans0.ltrans.o
Vector198                                         C:\Users\Ciccio\AppData\Local\Temp\ccXVDL4Z.ltrans11.ltrans.o
                                                  build/obj/vectors.o (symbol from plugin)
                                                  C:\Users\Ciccio\AppData\Local\Temp\ccXVDL4Z.ltrans0.ltrans.o
Vector19C                                         C:\Users\Ciccio\AppData\Local\Temp\ccXVDL4Z.ltrans11.ltrans.o
                                                  build/obj/vectors.o (symbol from plugin)
                                                  C:\Users\Ciccio\AppData\Local\Temp\ccXVDL4Z.ltrans0.ltrans.o
Vector1A0                                         C:\Users\Ciccio\AppData\Local\Temp\ccXVDL4Z.ltrans11.ltrans.o
                                                  build/obj/vectors.o (symbol from plugin)
                                                  C:\Users\Ciccio\AppData\Local\Temp\ccXVDL4Z.ltrans0.ltrans.o
Vector1A4                                         C:\Users\Ciccio\AppData\Local\Temp\ccXVDL4Z.ltrans11.ltrans.o
                                                  build/obj/vectors.o (symbol from plugin)
                                                  C:\Users\Ciccio\AppData\Local\Temp\ccXVDL4Z.ltrans0.ltrans.o
Vector1A8                                         C:\Users\Ciccio\AppData\Local\Temp\ccXVDL4Z.ltrans11.ltrans.o
                                                  build/obj/vectors.o (symbol from plugin)
                                                  C:\Users\Ciccio\AppData\Local\Temp\ccXVDL4Z.ltrans0.ltrans.o
Vector1AC                                         C:\Users\Ciccio\AppData\Local\Temp\ccXVDL4Z.ltrans11.ltrans.o
                                                  build/obj/vectors.o (symbol from plugin)
                                                  C:\Users\Ciccio\AppData\Local\Temp\ccXVDL4Z.ltrans0.ltrans.o
Vector1B0                                         C:\Users\Ciccio\AppData\Local\Temp\ccXVDL4Z.ltrans11.ltrans.o
                                                  build/obj/vectors.o (symbol from plugin)
                                                  C:\Users\Ciccio\AppData\Local\Temp\ccXVDL4Z.ltrans0.ltrans.o
Vector1B4                                         C:\Users\Ciccio\AppData\Local\Temp\ccXVDL4Z.ltrans11.ltrans.o
                                                  build/obj/vectors.o (symbol from plugin)
                                                  C:\Users\Ciccio\AppData\Local\Temp\ccXVDL4Z.ltrans0.ltrans.o
Vector1B8                                         C:\Users\Ciccio\AppData\Local\Temp\ccXVDL4Z.ltrans11.ltrans.o
                                                  build/obj/vectors.o (symbol from plugin)
                                                  C:\Users\Ciccio\AppData\Local\Temp\ccXVDL4Z.ltrans0.ltrans.o
Vector1BC                                         C:\Users\Ciccio\AppData\Local\Temp\ccXVDL4Z.ltrans11.ltrans.o
                                                  build/obj/vectors.o (symbol from plugin)
                                                  C:\Users\Ciccio\AppData\Local\Temp\ccXVDL4Z.ltrans0.ltrans.o
Vector1C                                          C:\Users\Ciccio\AppData\Local\Temp\ccXVDL4Z.ltrans11.ltrans.o
                                                  build/obj/vectors.o (symbol from plugin)
                                                  C:\Users\Ciccio\AppData\Local\Temp\ccXVDL4Z.ltrans0.ltrans.o
Vector20                                          C:\Users\Ciccio\AppData\Local\Temp\ccXVDL4Z.ltrans11.ltrans.o
                                                  build/obj/vectors.o (symbol from plugin)
                                                  C:\Users\Ciccio\AppData\Local\Temp\ccXVDL4Z.ltrans0.ltrans.o
Vector24                                          C:\Users\Ciccio\AppData\Local\Temp\ccXVDL4Z.ltrans11.ltrans.o
                                                  build/obj/vectors.o (symbol from plugin)
                                                  C:\Users\Ciccio\AppData\Local\Temp\ccXVDL4Z.ltrans0.ltrans.o
Vector28                                          C:\Users\Ciccio\AppData\Local\Temp\ccXVDL4Z.ltrans11.ltrans.o
                                                  build/obj/vectors.o (symbol from plugin)
                                                  C:\Users\Ciccio\AppData\Local\Temp\ccXVDL4Z.ltrans0.ltrans.o
Vector34                                          C:\Users\Ciccio\AppData\Local\Temp\ccXVDL4Z.ltrans11.ltrans.o
                                                  build/obj/vectors.o (symbol from plugin)
                                                  C:\Users\Ciccio\AppData\Local\Temp\ccXVDL4Z.ltrans0.ltrans.o
Vector40                                          C:\Users\Ciccio\AppData\Local\Temp\ccXVDL4Z.ltrans11.ltrans.o
                                                  build/obj/vectors.o (symbol from plugin)
                                                  C:\Users\Ciccio\AppData\Local\Temp\ccXVDL4Z.ltrans0.ltrans.o
Vector44                                          C:\Users\Ciccio\AppData\Local\Temp\ccXVDL4Z.ltrans11.ltrans.o
                                                  build/obj/vectors.o (symbol from plugin)
                                                  C:\Users\Ciccio\AppData\Local\Temp\ccXVDL4Z.ltrans0.ltrans.o
Vector48                                          C:\Users\Ciccio\AppData\Local\Temp\ccXVDL4Z.ltrans11.ltrans.o
                                                  build/obj/vectors.o (symbol from plugin)
                                                  C:\Users\Ciccio\AppData\Local\Temp\ccXVDL4Z.ltrans0.ltrans.o
Vector4C                                          C:\Users\Ciccio\AppData\Local\Temp\ccXVDL4Z.ltrans11.ltrans.o
                                                  build/obj/vectors.o (symbol from plugin)
                                                  C:\Users\Ciccio\AppData\Local\Temp\ccXVDL4Z.ltrans0.ltrans.o
Vector50                                          C:\Users\Ciccio\AppData\Local\Temp\ccXVDL4Z.ltrans11.ltrans.o
                                                  build/obj/vectors.o (symbol from plugin)
                                                  C:\Users\Ciccio\AppData\Local\Temp\ccXVDL4Z.ltrans0.ltrans.o
Vector54                                          C:\Users\Ciccio\AppData\Local\Temp\ccXVDL4Z.ltrans11.ltrans.o
                                                  build/obj/vectors.o (symbol from plugin)
                                                  C:\Users\Ciccio\AppData\Local\Temp\ccXVDL4Z.ltrans0.ltrans.o
Vector58                                          C:\Users\Ciccio\AppData\Local\Temp\ccXVDL4Z.ltrans11.ltrans.o
                                                  build/obj/vectors.o (symbol from plugin)
                                                  C:\Users\Ciccio\AppData\Local\Temp\ccXVDL4Z.ltrans0.ltrans.o
Vector5C                                          C:\Users\Ciccio\AppData\Local\Temp\ccXVDL4Z.ltrans11.ltrans.o
                                                  build/obj/vectors.o (symbol from plugin)
                                                  C:\Users\Ciccio\AppData\Local\Temp\ccXVDL4Z.ltrans0.ltrans.o
Vector60                                          C:\Users\Ciccio\AppData\Local\Temp\ccXVDL4Z.ltrans11.ltrans.o
                                                  build/obj/vectors.o (symbol from plugin)
                                                  C:\Users\Ciccio\AppData\Local\Temp\ccXVDL4Z.ltrans0.ltrans.o
Vector64                                          C:\Users\Ciccio\AppData\Local\Temp\ccXVDL4Z.ltrans11.ltrans.o
                                                  build/obj/vectors.o (symbol from plugin)
                                                  C:\Users\Ciccio\AppData\Local\Temp\ccXVDL4Z.ltrans0.ltrans.o
Vector68                                          C:\Users\Ciccio\AppData\Local\Temp\ccXVDL4Z.ltrans11.ltrans.o
                                                  build/obj/vectors.o (symbol from plugin)
                                                  C:\Users\Ciccio\AppData\Local\Temp\ccXVDL4Z.ltrans0.ltrans.o
Vector6C                                          C:\Users\Ciccio\AppData\Local\Temp\ccXVDL4Z.ltrans7.ltrans.o
                                                  build/obj/stm32_dma.o (symbol from plugin)
                                                  build/obj/vectors.o (symbol from plugin)
                                                  C:\Users\Ciccio\AppData\Local\Temp\ccXVDL4Z.ltrans0.ltrans.o
Vector70                                          C:\Users\Ciccio\AppData\Local\Temp\ccXVDL4Z.ltrans7.ltrans.o
                                                  build/obj/stm32_dma.o (symbol from plugin)
                                                  build/obj/vectors.o (symbol from plugin)
                                                  C:\Users\Ciccio\AppData\Local\Temp\ccXVDL4Z.ltrans0.ltrans.o
Vector74                                          C:\Users\Ciccio\AppData\Local\Temp\ccXVDL4Z.ltrans7.ltrans.o
                                                  build/obj/stm32_dma.o (symbol from plugin)
                                                  build/obj/vectors.o (symbol from plugin)
                                                  C:\Users\Ciccio\AppData\Local\Temp\ccXVDL4Z.ltrans0.ltrans.o
Vector78                                          C:\Users\Ciccio\AppData\Local\Temp\ccXVDL4Z.ltrans7.ltrans.o
                                                  build/obj/stm32_dma.o (symbol from plugin)
                                                  build/obj/vectors.o (symbol from plugin)
                                                  C:\Users\Ciccio\AppData\Local\Temp\ccXVDL4Z.ltrans0.ltrans.o
Vector7C                                          C:\Users\Ciccio\AppData\Local\Temp\ccXVDL4Z.ltrans7.ltrans.o
                                                  build/obj/stm32_dma.o (symbol from plugin)
                                                  build/obj/vectors.o (symbol from plugin)
                                                  C:\Users\Ciccio\AppData\Local\Temp\ccXVDL4Z.ltrans0.ltrans.o
Vector80                                          C:\Users\Ciccio\AppData\Local\Temp\ccXVDL4Z.ltrans7.ltrans.o
                                                  build/obj/stm32_dma.o (symbol from plugin)
                                                  build/obj/vectors.o (symbol from plugin)
                                                  C:\Users\Ciccio\AppData\Local\Temp\ccXVDL4Z.ltrans0.ltrans.o
Vector84                                          C:\Users\Ciccio\AppData\Local\Temp\ccXVDL4Z.ltrans7.ltrans.o
                                                  build/obj/stm32_dma.o (symbol from plugin)
                                                  build/obj/vectors.o (symbol from plugin)
                                                  C:\Users\Ciccio\AppData\Local\Temp\ccXVDL4Z.ltrans0.ltrans.o
Vector88                                          C:\Users\Ciccio\AppData\Local\Temp\ccXVDL4Z.ltrans11.ltrans.o
                                                  build/obj/vectors.o (symbol from plugin)
                                                  C:\Users\Ciccio\AppData\Local\Temp\ccXVDL4Z.ltrans0.ltrans.o
Vector8C                                          C:\Users\Ciccio\AppData\Local\Temp\ccXVDL4Z.ltrans11.ltrans.o
                                                  build/obj/vectors.o (symbol from plugin)
                                                  C:\Users\Ciccio\AppData\Local\Temp\ccXVDL4Z.ltrans0.ltrans.o
Vector90                                          C:\Users\Ciccio\AppData\Local\Temp\ccXVDL4Z.ltrans11.ltrans.o
                                                  build/obj/vectors.o (symbol from plugin)
                                                  C:\Users\Ciccio\AppData\Local\Temp\ccXVDL4Z.ltrans0.ltrans.o
Vector94                                          C:\Users\Ciccio\AppData\Local\Temp\ccXVDL4Z.ltrans11.ltrans.o
                                                  build/obj/vectors.o (symbol from plugin)
                                                  C:\Users\Ciccio\AppData\Local\Temp\ccXVDL4Z.ltrans0.ltrans.o
Vector98                                          C:\Users\Ciccio\AppData\Local\Temp\ccXVDL4Z.ltrans11.ltrans.o
                                                  build/obj/vectors.o (symbol from plugin)
                                                  C:\Users\Ciccio\AppData\Local\Temp\ccXVDL4Z.ltrans0.ltrans.o
Vector9C                                          C:\Users\Ciccio\AppData\Local\Temp\ccXVDL4Z.ltrans11.ltrans.o
                                                  build/obj/vectors.o (symbol from plugin)
                                                  C:\Users\Ciccio\AppData\Local\Temp\ccXVDL4Z.ltrans0.ltrans.o
VectorA0                                          C:\Users\Ciccio\AppData\Local\Temp\ccXVDL4Z.ltrans11.ltrans.o
                                                  build/obj/vectors.o (symbol from plugin)
                                                  C:\Users\Ciccio\AppData\Local\Temp\ccXVDL4Z.ltrans0.ltrans.o
VectorA4                                          C:\Users\Ciccio\AppData\Local\Temp\ccXVDL4Z.ltrans11.ltrans.o
                                                  build/obj/vectors.o (symbol from plugin)
                                                  C:\Users\Ciccio\AppData\Local\Temp\ccXVDL4Z.ltrans0.ltrans.o
VectorA8                                          C:\Users\Ciccio\AppData\Local\Temp\ccXVDL4Z.ltrans11.ltrans.o
                                                  build/obj/vectors.o (symbol from plugin)
                                                  C:\Users\Ciccio\AppData\Local\Temp\ccXVDL4Z.ltrans0.ltrans.o
VectorAC                                          C:\Users\Ciccio\AppData\Local\Temp\ccXVDL4Z.ltrans11.ltrans.o
                                                  build/obj/vectors.o (symbol from plugin)
                                                  C:\Users\Ciccio\AppData\Local\Temp\ccXVDL4Z.ltrans0.ltrans.o
VectorB0                                          C:\Users\Ciccio\AppData\Local\Temp\ccXVDL4Z.ltrans6.ltrans.o
                                                  build/obj/st_lld.o (symbol from plugin)
                                                  build/obj/vectors.o (symbol from plugin)
                                                  C:\Users\Ciccio\AppData\Local\Temp\ccXVDL4Z.ltrans0.ltrans.o
VectorB4                                          C:\Users\Ciccio\AppData\Local\Temp\ccXVDL4Z.ltrans11.ltrans.o
                                                  build/obj/vectors.o (symbol from plugin)
                                                  C:\Users\Ciccio\AppData\Local\Temp\ccXVDL4Z.ltrans0.ltrans.o
VectorB8                                          C:\Users\Ciccio\AppData\Local\Temp\ccXVDL4Z.ltrans11.ltrans.o
                                                  build/obj/vectors.o (symbol from plugin)
                                                  C:\Users\Ciccio\AppData\Local\Temp\ccXVDL4Z.ltrans0.ltrans.o
VectorBC                                          C:\Users\Ciccio\AppData\Local\Temp\ccXVDL4Z.ltrans6.ltrans.o
                                                  build/obj/i2c_lld.o (symbol from plugin)
                                                  build/obj/vectors.o (symbol from plugin)
                                                  C:\Users\Ciccio\AppData\Local\Temp\ccXVDL4Z.ltrans0.ltrans.o
VectorC0                                          C:\Users\Ciccio\AppData\Local\Temp\ccXVDL4Z.ltrans6.ltrans.o
                                                  build/obj/i2c_lld.o (symbol from plugin)
                                                  build/obj/vectors.o (symbol from plugin)
                                                  C:\Users\Ciccio\AppData\Local\Temp\ccXVDL4Z.ltrans0.ltrans.o
VectorC4                                          C:\Users\Ciccio\AppData\Local\Temp\ccXVDL4Z.ltrans6.ltrans.o
                                                  build/obj/i2c_lld.o (symbol from plugin)
                                                  build/obj/vectors.o (symbol from plugin)
                                                  C:\Users\Ciccio\AppData\Local\Temp\ccXVDL4Z.ltrans0.ltrans.o
VectorC8                                          C:\Users\Ciccio\AppData\Local\Temp\ccXVDL4Z.ltrans6.ltrans.o
                                                  build/obj/i2c_lld.o (symbol from plugin)
                                                  build/obj/vectors.o (symbol from plugin)
                                                  C:\Users\Ciccio\AppData\Local\Temp\ccXVDL4Z.ltrans0.ltrans.o
VectorCC                                          C:\Users\Ciccio\AppData\Local\Temp\ccXVDL4Z.ltrans11.ltrans.o
                                                  build/obj/vectors.o (symbol from plugin)
                                                  C:\Users\Ciccio\AppData\Local\Temp\ccXVDL4Z.ltrans0.ltrans.o
VectorD0                                          C:\Users\Ciccio\AppData\Local\Temp\ccXVDL4Z.ltrans11.ltrans.o
                                                  build/obj/vectors.o (symbol from plugin)
                                                  C:\Users\Ciccio\AppData\Local\Temp\ccXVDL4Z.ltrans0.ltrans.o
VectorD4                                          C:\Users\Ciccio\AppData\Local\Temp\ccXVDL4Z.ltrans11.ltrans.o
                                                  build/obj/vectors.o (symbol from plugin)
                                                  C:\Users\Ciccio\AppData\Local\Temp\ccXVDL4Z.ltrans0.ltrans.o
VectorD8                                          C:\Users\Ciccio\AppData\Local\Temp\ccXVDL4Z.ltrans5.ltrans.o
                                                  build/obj/serial_lld.o (symbol from plugin)
                                                  build/obj/vectors.o (symbol from plugin)
                                                  C:\Users\Ciccio\AppData\Local\Temp\ccXVDL4Z.ltrans0.ltrans.o
VectorDC                                          C:\Users\Ciccio\AppData\Local\Temp\ccXVDL4Z.ltrans11.ltrans.o
                                                  build/obj/vectors.o (symbol from plugin)
                                                  C:\Users\Ciccio\AppData\Local\Temp\ccXVDL4Z.ltrans0.ltrans.o
VectorE0                                          C:\Users\Ciccio\AppData\Local\Temp\ccXVDL4Z.ltrans11.ltrans.o
                                                  build/obj/vectors.o (symbol from plugin)
                                                  C:\Users\Ciccio\AppData\Local\Temp\ccXVDL4Z.ltrans0.ltrans.o
VectorE4                                          C:\Users\Ciccio\AppData\Local\Temp\ccXVDL4Z.ltrans11.ltrans.o
                                                  build/obj/vectors.o (symbol from plugin)
                                                  C:\Users\Ciccio\AppData\Local\Temp\ccXVDL4Z.ltrans0.ltrans.o
VectorE8                                          C:\Users\Ciccio\AppData\Local\Temp\ccXVDL4Z.ltrans11.ltrans.o
                                                  build/obj/vectors.o (symbol from plugin)
                                                  C:\Users\Ciccio\AppData\Local\Temp\ccXVDL4Z.ltrans0.ltrans.o
VectorEC                                          C:\Users\Ciccio\AppData\Local\Temp\ccXVDL4Z.ltrans11.ltrans.o
                                                  build/obj/vectors.o (symbol from plugin)
                                                  C:\Users\Ciccio\AppData\Local\Temp\ccXVDL4Z.ltrans0.ltrans.o
VectorF0                                          C:\Users\Ciccio\AppData\Local\Temp\ccXVDL4Z.ltrans11.ltrans.o
                                                  build/obj/vectors.o (symbol from plugin)
                                                  C:\Users\Ciccio\AppData\Local\Temp\ccXVDL4Z.ltrans0.ltrans.o
VectorF4                                          C:\Users\Ciccio\AppData\Local\Temp\ccXVDL4Z.ltrans11.ltrans.o
                                                  build/obj/vectors.o (symbol from plugin)
                                                  C:\Users\Ciccio\AppData\Local\Temp\ccXVDL4Z.ltrans0.ltrans.o
VectorF8                                          C:\Users\Ciccio\AppData\Local\Temp\ccXVDL4Z.ltrans11.ltrans.o
                                                  build/obj/vectors.o (symbol from plugin)
                                                  C:\Users\Ciccio\AppData\Local\Temp\ccXVDL4Z.ltrans0.ltrans.o
VectorFC                                          C:\Users\Ciccio\AppData\Local\Temp\ccXVDL4Z.ltrans7.ltrans.o
                                                  build/obj/stm32_dma.o (symbol from plugin)
                                                  build/obj/vectors.o (symbol from plugin)
                                                  C:\Users\Ciccio\AppData\Local\Temp\ccXVDL4Z.ltrans0.ltrans.o
__core_init                                       C:\Users\Ciccio\AppData\Local\Temp\ccXVDL4Z.ltrans11.ltrans.o
                                                  build/obj/crt1.o (symbol from plugin)
                                                  build/obj/crt0_v7m.o
__ctype_ptr__                                     c:/chibistudio/tools/gnu tools arm embedded/4.9 2015q3/bin/../lib/gcc/arm-none-eabi/4.9.3/../../../../arm-none-eabi/lib/armv7e-m\libg.a(lib_a-ctype_.o)
                                                  c:/chibistudio/tools/gnu tools arm embedded/4.9 2015q3/bin/../lib/gcc/arm-none-eabi/4.9.3/../../../../arm-none-eabi/lib/armv7e-m\libg.a(lib_a-strtol.o)
__default_exit                                    C:\Users\Ciccio\AppData\Local\Temp\ccXVDL4Z.ltrans11.ltrans.o
                                                  build/obj/crt1.o (symbol from plugin)
                                                  build/obj/crt0_v7m.o
__early_init                                      C:\Users\Ciccio\AppData\Local\Temp\ccXVDL4Z.ltrans5.ltrans.o
                                                  build/obj/board.o (symbol from plugin)
                                                  build/obj/crt1.o (symbol from plugin)
                                                  build/obj/crt0_v7m.o
__fini_array_end                                  build/obj/crt0_v7m.o
__fini_array_start                                build/obj/crt0_v7m.o
__func__.5737.lto_priv.10                         C:\Users\Ciccio\AppData\Local\Temp\ccXVDL4Z.ltrans0.ltrans.o
                                                  C:\Users\Ciccio\AppData\Local\Temp\ccXVDL4Z.ltrans10.ltrans.o
__func__.5737.lto_priv.11                         C:\Users\Ciccio\AppData\Local\Temp\ccXVDL4Z.ltrans0.ltrans.o
                                                  C:\Users\Ciccio\AppData\Local\Temp\ccXVDL4Z.ltrans10.ltrans.o
__func__.5737.lto_priv.12                         C:\Users\Ciccio\AppData\Local\Temp\ccXVDL4Z.ltrans0.ltrans.o
                                                  C:\Users\Ciccio\AppData\Local\Temp\ccXVDL4Z.ltrans10.ltrans.o
__func__.5737.lto_priv.13                         C:\Users\Ciccio\AppData\Local\Temp\ccXVDL4Z.ltrans0.ltrans.o
                                                  C:\Users\Ciccio\AppData\Local\Temp\ccXVDL4Z.ltrans9.ltrans.o
__func__.5737.lto_priv.14                         C:\Users\Ciccio\AppData\Local\Temp\ccXVDL4Z.ltrans0.ltrans.o
                                                  C:\Users\Ciccio\AppData\Local\Temp\ccXVDL4Z.ltrans9.ltrans.o
__func__.5737.lto_priv.15                         C:\Users\Ciccio\AppData\Local\Temp\ccXVDL4Z.ltrans0.ltrans.o
                                                  C:\Users\Ciccio\AppData\Local\Temp\ccXVDL4Z.ltrans9.ltrans.o
__func__.5737.lto_priv.16                         C:\Users\Ciccio\AppData\Local\Temp\ccXVDL4Z.ltrans0.ltrans.o
                                                  C:\Users\Ciccio\AppData\Local\Temp\ccXVDL4Z.ltrans9.ltrans.o
__func__.5737.lto_priv.17                         C:\Users\Ciccio\AppData\Local\Temp\ccXVDL4Z.ltrans0.ltrans.o
                                                  C:\Users\Ciccio\AppData\Local\Temp\ccXVDL4Z.ltrans8.ltrans.o
__func__.5737.lto_priv.18                         C:\Users\Ciccio\AppData\Local\Temp\ccXVDL4Z.ltrans0.ltrans.o
                                                  C:\Users\Ciccio\AppData\Local\Temp\ccXVDL4Z.ltrans8.ltrans.o
__func__.5737.lto_priv.19                         C:\Users\Ciccio\AppData\Local\Temp\ccXVDL4Z.ltrans0.ltrans.o
                                                  C:\Users\Ciccio\AppData\Local\Temp\ccXVDL4Z.ltrans7.ltrans.o
__func__.5737.lto_priv.20                         C:\Users\Ciccio\AppData\Local\Temp\ccXVDL4Z.ltrans0.ltrans.o
                                                  C:\Users\Ciccio\AppData\Local\Temp\ccXVDL4Z.ltrans7.ltrans.o
__func__.5737.lto_priv.21                         C:\Users\Ciccio\AppData\Local\Temp\ccXVDL4Z.ltrans0.ltrans.o
                                                  C:\Users\Ciccio\AppData\Local\Temp\ccXVDL4Z.ltrans6.ltrans.o
__func__.5737.lto_priv.22                         C:\Users\Ciccio\AppData\Local\Temp\ccXVDL4Z.ltrans0.ltrans.o
                                                  C:\Users\Ciccio\AppData\Local\Temp\ccXVDL4Z.ltrans5.ltrans.o
__func__.5737.lto_priv.23                         C:\Users\Ciccio\AppData\Local\Temp\ccXVDL4Z.ltrans0.ltrans.o
                                                  C:\Users\Ciccio\AppData\Local\Temp\ccXVDL4Z.ltrans5.ltrans.o
__func__.5737.lto_priv.24                         C:\Users\Ciccio\AppData\Local\Temp\ccXVDL4Z.ltrans0.ltrans.o
                                                  C:\Users\Ciccio\AppData\Local\Temp\ccXVDL4Z.ltrans5.ltrans.o
__func__.5737.lto_priv.25                         C:\Users\Ciccio\AppData\Local\Temp\ccXVDL4Z.ltrans0.ltrans.o
                                                  C:\Users\Ciccio\AppData\Local\Temp\ccXVDL4Z.ltrans4.ltrans.o
__func__.5737.lto_priv.26                         C:\Users\Ciccio\AppData\Local\Temp\ccXVDL4Z.ltrans0.ltrans.o
                                                  C:\Users\Ciccio\AppData\Local\Temp\ccXVDL4Z.ltrans4.ltrans.o
__func__.5737.lto_priv.27                         C:\Users\Ciccio\AppData\Local\Temp\ccXVDL4Z.ltrans0.ltrans.o
                                                  C:\Users\Ciccio\AppData\Local\Temp\ccXVDL4Z.ltrans3.ltrans.o
__func__.5737.lto_priv.28                         C:\Users\Ciccio\AppData\Local\Temp\ccXVDL4Z.ltrans0.ltrans.o
                                                  C:\Users\Ciccio\AppData\Local\Temp\ccXVDL4Z.ltrans2.ltrans.o
__func__.5737.lto_priv.29                         C:\Users\Ciccio\AppData\Local\Temp\ccXVDL4Z.ltrans0.ltrans.o
                                                  C:\Users\Ciccio\AppData\Local\Temp\ccXVDL4Z.ltrans1.ltrans.o
__func__.5737.lto_priv.30                         C:\Users\Ciccio\AppData\Local\Temp\ccXVDL4Z.ltrans0.ltrans.o
                                                  C:\Users\Ciccio\AppData\Local\Temp\ccXVDL4Z.ltrans1.ltrans.o
__func__.5737.lto_priv.6                          C:\Users\Ciccio\AppData\Local\Temp\ccXVDL4Z.ltrans0.ltrans.o
                                                  C:\Users\Ciccio\AppData\Local\Temp\ccXVDL4Z.ltrans11.ltrans.o
__func__.5737.lto_priv.7                          C:\Users\Ciccio\AppData\Local\Temp\ccXVDL4Z.ltrans0.ltrans.o
                                                  C:\Users\Ciccio\AppData\Local\Temp\ccXVDL4Z.ltrans11.ltrans.o
__func__.5737.lto_priv.8                          C:\Users\Ciccio\AppData\Local\Temp\ccXVDL4Z.ltrans0.ltrans.o
                                                  C:\Users\Ciccio\AppData\Local\Temp\ccXVDL4Z.ltrans10.ltrans.o
__func__.5737.lto_priv.9                          C:\Users\Ciccio\AppData\Local\Temp\ccXVDL4Z.ltrans0.ltrans.o
                                                  C:\Users\Ciccio\AppData\Local\Temp\ccXVDL4Z.ltrans10.ltrans.o
__func__.5826.lto_priv.459                        C:\Users\Ciccio\AppData\Local\Temp\ccXVDL4Z.ltrans0.ltrans.o
                                                  C:\Users\Ciccio\AppData\Local\Temp\ccXVDL4Z.ltrans11.ltrans.o
__func__.5907.lto_priv.416                        C:\Users\Ciccio\AppData\Local\Temp\ccXVDL4Z.ltrans0.ltrans.o
                                                  C:\Users\Ciccio\AppData\Local\Temp\ccXVDL4Z.ltrans11.ltrans.o
__func__.5911.lto_priv.415                        C:\Users\Ciccio\AppData\Local\Temp\ccXVDL4Z.ltrans0.ltrans.o
                                                  C:\Users\Ciccio\AppData\Local\Temp\ccXVDL4Z.ltrans11.ltrans.o
__func__.5923.lto_priv.414                        C:\Users\Ciccio\AppData\Local\Temp\ccXVDL4Z.ltrans0.ltrans.o
                                                  C:\Users\Ciccio\AppData\Local\Temp\ccXVDL4Z.ltrans11.ltrans.o
__func__.6051.lto_priv.316                        C:\Users\Ciccio\AppData\Local\Temp\ccXVDL4Z.ltrans0.ltrans.o
                                                  C:\Users\Ciccio\AppData\Local\Temp\ccXVDL4Z.ltrans8.ltrans.o
__func__.6435.lto_priv.136                        C:\Users\Ciccio\AppData\Local\Temp\ccXVDL4Z.ltrans0.ltrans.o
                                                  C:\Users\Ciccio\AppData\Local\Temp\ccXVDL4Z.ltrans10.ltrans.o
__func__.6435.lto_priv.137                        C:\Users\Ciccio\AppData\Local\Temp\ccXVDL4Z.ltrans0.ltrans.o
                                                  C:\Users\Ciccio\AppData\Local\Temp\ccXVDL4Z.ltrans10.ltrans.o
__func__.6435.lto_priv.138                        C:\Users\Ciccio\AppData\Local\Temp\ccXVDL4Z.ltrans0.ltrans.o
                                                  C:\Users\Ciccio\AppData\Local\Temp\ccXVDL4Z.ltrans9.ltrans.o
__func__.6436.lto_priv.403                        C:\Users\Ciccio\AppData\Local\Temp\ccXVDL4Z.ltrans0.ltrans.o
                                                  C:\Users\Ciccio\AppData\Local\Temp\ccXVDL4Z.ltrans10.ltrans.o
__func__.6437.lto_priv.118                        C:\Users\Ciccio\AppData\Local\Temp\ccXVDL4Z.ltrans0.ltrans.o
                                                  C:\Users\Ciccio\AppData\Local\Temp\ccXVDL4Z.ltrans9.ltrans.o
__func__.6437.lto_priv.119                        C:\Users\Ciccio\AppData\Local\Temp\ccXVDL4Z.ltrans0.ltrans.o
                                                  C:\Users\Ciccio\AppData\Local\Temp\ccXVDL4Z.ltrans9.ltrans.o
__func__.6437.lto_priv.120                        C:\Users\Ciccio\AppData\Local\Temp\ccXVDL4Z.ltrans0.ltrans.o
                                                  C:\Users\Ciccio\AppData\Local\Temp\ccXVDL4Z.ltrans8.ltrans.o
__func__.6438.lto_priv.366                        C:\Users\Ciccio\AppData\Local\Temp\ccXVDL4Z.ltrans0.ltrans.o
                                                  C:\Users\Ciccio\AppData\Local\Temp\ccXVDL4Z.ltrans9.ltrans.o
__func__.6439.lto_priv.368                        C:\Users\Ciccio\AppData\Local\Temp\ccXVDL4Z.ltrans0.ltrans.o
                                                  C:\Users\Ciccio\AppData\Local\Temp\ccXVDL4Z.ltrans9.ltrans.o
__func__.6440.lto_priv.139                        C:\Users\Ciccio\AppData\Local\Temp\ccXVDL4Z.ltrans0.ltrans.o
                                                  C:\Users\Ciccio\AppData\Local\Temp\ccXVDL4Z.ltrans11.ltrans.o
__func__.6440.lto_priv.140                        C:\Users\Ciccio\AppData\Local\Temp\ccXVDL4Z.ltrans0.ltrans.o
                                                  C:\Users\Ciccio\AppData\Local\Temp\ccXVDL4Z.ltrans10.ltrans.o
__func__.6441.lto_priv.404                        C:\Users\Ciccio\AppData\Local\Temp\ccXVDL4Z.ltrans0.ltrans.o
                                                  C:\Users\Ciccio\AppData\Local\Temp\ccXVDL4Z.ltrans10.ltrans.o
__func__.6442.lto_priv.334                        C:\Users\Ciccio\AppData\Local\Temp\ccXVDL4Z.ltrans0.ltrans.o
                                                  C:\Users\Ciccio\AppData\Local\Temp\ccXVDL4Z.ltrans8.ltrans.o
__func__.6443.lto_priv.114                        C:\Users\Ciccio\AppData\Local\Temp\ccXVDL4Z.ltrans0.ltrans.o
                                                  C:\Users\Ciccio\AppData\Local\Temp\ccXVDL4Z.ltrans11.ltrans.o
__func__.6443.lto_priv.115                        C:\Users\Ciccio\AppData\Local\Temp\ccXVDL4Z.ltrans0.ltrans.o
                                                  C:\Users\Ciccio\AppData\Local\Temp\ccXVDL4Z.ltrans10.ltrans.o
__func__.6443.lto_priv.116                        C:\Users\Ciccio\AppData\Local\Temp\ccXVDL4Z.ltrans0.ltrans.o
                                                  C:\Users\Ciccio\AppData\Local\Temp\ccXVDL4Z.ltrans9.ltrans.o
__func__.6443.lto_priv.117                        C:\Users\Ciccio\AppData\Local\Temp\ccXVDL4Z.ltrans0.ltrans.o
                                                  C:\Users\Ciccio\AppData\Local\Temp\ccXVDL4Z.ltrans8.ltrans.o
__func__.6444.lto_priv.127                        C:\Users\Ciccio\AppData\Local\Temp\ccXVDL4Z.ltrans0.ltrans.o
                                                  C:\Users\Ciccio\AppData\Local\Temp\ccXVDL4Z.ltrans9.ltrans.o
__func__.6444.lto_priv.128                        C:\Users\Ciccio\AppData\Local\Temp\ccXVDL4Z.ltrans0.ltrans.o
                                                  C:\Users\Ciccio\AppData\Local\Temp\ccXVDL4Z.ltrans9.ltrans.o
__func__.6446.lto_priv.129                        C:\Users\Ciccio\AppData\Local\Temp\ccXVDL4Z.ltrans0.ltrans.o
                                                  C:\Users\Ciccio\AppData\Local\Temp\ccXVDL4Z.ltrans10.ltrans.o
__func__.6446.lto_priv.130                        C:\Users\Ciccio\AppData\Local\Temp\ccXVDL4Z.ltrans0.ltrans.o
                                                  C:\Users\Ciccio\AppData\Local\Temp\ccXVDL4Z.ltrans9.ltrans.o
__func__.6451.lto_priv.111                        C:\Users\Ciccio\AppData\Local\Temp\ccXVDL4Z.ltrans0.ltrans.o
                                                  C:\Users\Ciccio\AppData\Local\Temp\ccXVDL4Z.ltrans11.ltrans.o
__func__.6451.lto_priv.112                        C:\Users\Ciccio\AppData\Local\Temp\ccXVDL4Z.ltrans0.ltrans.o
                                                  C:\Users\Ciccio\AppData\Local\Temp\ccXVDL4Z.ltrans9.ltrans.o
__func__.6451.lto_priv.113                        C:\Users\Ciccio\AppData\Local\Temp\ccXVDL4Z.ltrans0.ltrans.o
                                                  C:\Users\Ciccio\AppData\Local\Temp\ccXVDL4Z.ltrans8.ltrans.o
__func__.6452.lto_priv.413                        C:\Users\Ciccio\AppData\Local\Temp\ccXVDL4Z.ltrans0.ltrans.o
                                                  C:\Users\Ciccio\AppData\Local\Temp\ccXVDL4Z.ltrans11.ltrans.o
__func__.6457.lto_priv.125                        C:\Users\Ciccio\AppData\Local\Temp\ccXVDL4Z.ltrans0.ltrans.o
                                                  C:\Users\Ciccio\AppData\Local\Temp\ccXVDL4Z.ltrans10.ltrans.o
__func__.6457.lto_priv.126                        C:\Users\Ciccio\AppData\Local\Temp\ccXVDL4Z.ltrans0.ltrans.o
                                                  C:\Users\Ciccio\AppData\Local\Temp\ccXVDL4Z.ltrans9.ltrans.o
__func__.6459.lto_priv.333                        C:\Users\Ciccio\AppData\Local\Temp\ccXVDL4Z.ltrans0.ltrans.o
                                                  C:\Users\Ciccio\AppData\Local\Temp\ccXVDL4Z.ltrans8.ltrans.o
__func__.6460.lto_priv.134                        C:\Users\Ciccio\AppData\Local\Temp\ccXVDL4Z.ltrans0.ltrans.o
                                                  C:\Users\Ciccio\AppData\Local\Temp\ccXVDL4Z.ltrans10.ltrans.o
__func__.6460.lto_priv.135                        C:\Users\Ciccio\AppData\Local\Temp\ccXVDL4Z.ltrans0.ltrans.o
                                                  C:\Users\Ciccio\AppData\Local\Temp\ccXVDL4Z.ltrans9.ltrans.o
__func__.6461.lto_priv.331                        C:\Users\Ciccio\AppData\Local\Temp\ccXVDL4Z.ltrans0.ltrans.o
                                                  C:\Users\Ciccio\AppData\Local\Temp\ccXVDL4Z.ltrans8.ltrans.o
__func__.6462.lto_priv.123                        C:\Users\Ciccio\AppData\Local\Temp\ccXVDL4Z.ltrans0.ltrans.o
                                                  C:\Users\Ciccio\AppData\Local\Temp\ccXVDL4Z.ltrans10.ltrans.o
__func__.6462.lto_priv.124                        C:\Users\Ciccio\AppData\Local\Temp\ccXVDL4Z.ltrans0.ltrans.o
                                                  C:\Users\Ciccio\AppData\Local\Temp\ccXVDL4Z.ltrans9.ltrans.o
__func__.6463.lto_priv.340                        C:\Users\Ciccio\AppData\Local\Temp\ccXVDL4Z.ltrans0.ltrans.o
                                                  C:\Users\Ciccio\AppData\Local\Temp\ccXVDL4Z.ltrans9.ltrans.o
__func__.6465.lto_priv.367                        C:\Users\Ciccio\AppData\Local\Temp\ccXVDL4Z.ltrans0.ltrans.o
                                                  C:\Users\Ciccio\AppData\Local\Temp\ccXVDL4Z.ltrans9.ltrans.o
__func__.6466.lto_priv.384                        C:\Users\Ciccio\AppData\Local\Temp\ccXVDL4Z.ltrans0.ltrans.o
                                                  C:\Users\Ciccio\AppData\Local\Temp\ccXVDL4Z.ltrans10.ltrans.o
__func__.6467.lto_priv.402                        C:\Users\Ciccio\AppData\Local\Temp\ccXVDL4Z.ltrans0.ltrans.o
                                                  C:\Users\Ciccio\AppData\Local\Temp\ccXVDL4Z.ltrans10.ltrans.o
__func__.6468.lto_priv.141                        C:\Users\Ciccio\AppData\Local\Temp\ccXVDL4Z.ltrans0.ltrans.o
                                                  C:\Users\Ciccio\AppData\Local\Temp\ccXVDL4Z.ltrans11.ltrans.o
__func__.6468.lto_priv.142                        C:\Users\Ciccio\AppData\Local\Temp\ccXVDL4Z.ltrans0.ltrans.o
                                                  C:\Users\Ciccio\AppData\Local\Temp\ccXVDL4Z.ltrans11.ltrans.o
__func__.6471.lto_priv.401                        C:\Users\Ciccio\AppData\Local\Temp\ccXVDL4Z.ltrans0.ltrans.o
                                                  C:\Users\Ciccio\AppData\Local\Temp\ccXVDL4Z.ltrans10.ltrans.o
__func__.6472.lto_priv.365                        C:\Users\Ciccio\AppData\Local\Temp\ccXVDL4Z.ltrans0.ltrans.o
                                                  C:\Users\Ciccio\AppData\Local\Temp\ccXVDL4Z.ltrans9.ltrans.o
__func__.6475.lto_priv.121                        C:\Users\Ciccio\AppData\Local\Temp\ccXVDL4Z.ltrans0.ltrans.o
                                                  C:\Users\Ciccio\AppData\Local\Temp\ccXVDL4Z.ltrans10.ltrans.o
__func__.6475.lto_priv.122                        C:\Users\Ciccio\AppData\Local\Temp\ccXVDL4Z.ltrans0.ltrans.o
                                                  C:\Users\Ciccio\AppData\Local\Temp\ccXVDL4Z.ltrans9.ltrans.o
__func__.6477.lto_priv.131                        C:\Users\Ciccio\AppData\Local\Temp\ccXVDL4Z.ltrans0.ltrans.o
                                                  C:\Users\Ciccio\AppData\Local\Temp\ccXVDL4Z.ltrans10.ltrans.o
__func__.6477.lto_priv.132                        C:\Users\Ciccio\AppData\Local\Temp\ccXVDL4Z.ltrans0.ltrans.o
                                                  C:\Users\Ciccio\AppData\Local\Temp\ccXVDL4Z.ltrans9.ltrans.o
__func__.6477.lto_priv.133                        C:\Users\Ciccio\AppData\Local\Temp\ccXVDL4Z.ltrans0.ltrans.o
                                                  C:\Users\Ciccio\AppData\Local\Temp\ccXVDL4Z.ltrans9.ltrans.o
__func__.6480.lto_priv.353                        C:\Users\Ciccio\AppData\Local\Temp\ccXVDL4Z.ltrans0.ltrans.o
                                                  C:\Users\Ciccio\AppData\Local\Temp\ccXVDL4Z.ltrans9.ltrans.o
__func__.6481.lto_priv.400                        C:\Users\Ciccio\AppData\Local\Temp\ccXVDL4Z.ltrans0.ltrans.o
                                                  C:\Users\Ciccio\AppData\Local\Temp\ccXVDL4Z.ltrans10.ltrans.o
__func__.6490.lto_priv.399                        C:\Users\Ciccio\AppData\Local\Temp\ccXVDL4Z.ltrans0.ltrans.o
                                                  C:\Users\Ciccio\AppData\Local\Temp\ccXVDL4Z.ltrans10.ltrans.o
__func__.6491.lto_priv.364                        C:\Users\Ciccio\AppData\Local\Temp\ccXVDL4Z.ltrans0.ltrans.o
                                                  C:\Users\Ciccio\AppData\Local\Temp\ccXVDL4Z.ltrans9.ltrans.o
__func__.6493.lto_priv.352                        C:\Users\Ciccio\AppData\Local\Temp\ccXVDL4Z.ltrans0.ltrans.o
                                                  C:\Users\Ciccio\AppData\Local\Temp\ccXVDL4Z.ltrans9.ltrans.o
__func__.6496.lto_priv.412                        C:\Users\Ciccio\AppData\Local\Temp\ccXVDL4Z.ltrans0.ltrans.o
                                                  C:\Users\Ciccio\AppData\Local\Temp\ccXVDL4Z.ltrans11.ltrans.o
__func__.6498.lto_priv.351                        C:\Users\Ciccio\AppData\Local\Temp\ccXVDL4Z.ltrans0.ltrans.o
                                                  C:\Users\Ciccio\AppData\Local\Temp\ccXVDL4Z.ltrans9.ltrans.o
__func__.6499.lto_priv.337                        C:\Users\Ciccio\AppData\Local\Temp\ccXVDL4Z.ltrans0.ltrans.o
                                                  C:\Users\Ciccio\AppData\Local\Temp\ccXVDL4Z.ltrans8.ltrans.o
__func__.6501.lto_priv.411                        C:\Users\Ciccio\AppData\Local\Temp\ccXVDL4Z.ltrans0.ltrans.o
                                                  C:\Users\Ciccio\AppData\Local\Temp\ccXVDL4Z.ltrans11.ltrans.o
__func__.6506.lto_priv.410                        C:\Users\Ciccio\AppData\Local\Temp\ccXVDL4Z.ltrans0.ltrans.o
                                                  C:\Users\Ciccio\AppData\Local\Temp\ccXVDL4Z.ltrans11.ltrans.o
__func__.6512.lto_priv.409                        C:\Users\Ciccio\AppData\Local\Temp\ccXVDL4Z.ltrans0.ltrans.o
                                                  C:\Users\Ciccio\AppData\Local\Temp\ccXVDL4Z.ltrans11.ltrans.o
__func__.6518.lto_priv.408                        C:\Users\Ciccio\AppData\Local\Temp\ccXVDL4Z.ltrans0.ltrans.o
                                                  C:\Users\Ciccio\AppData\Local\Temp\ccXVDL4Z.ltrans11.ltrans.o
__func__.6524.lto_priv.407                        C:\Users\Ciccio\AppData\Local\Temp\ccXVDL4Z.ltrans0.ltrans.o
                                                  C:\Users\Ciccio\AppData\Local\Temp\ccXVDL4Z.ltrans11.ltrans.o
__func__.7034.lto_priv.296                        C:\Users\Ciccio\AppData\Local\Temp\ccXVDL4Z.ltrans0.ltrans.o
                                                  C:\Users\Ciccio\AppData\Local\Temp\ccXVDL4Z.ltrans7.ltrans.o
__func__.7037.lto_priv.330                        C:\Users\Ciccio\AppData\Local\Temp\ccXVDL4Z.ltrans0.ltrans.o
                                                  C:\Users\Ciccio\AppData\Local\Temp\ccXVDL4Z.ltrans8.ltrans.o
__func__.7039.lto_priv.295                        C:\Users\Ciccio\AppData\Local\Temp\ccXVDL4Z.ltrans0.ltrans.o
                                                  C:\Users\Ciccio\AppData\Local\Temp\ccXVDL4Z.ltrans7.ltrans.o
__func__.7041.lto_priv.303                        C:\Users\Ciccio\AppData\Local\Temp\ccXVDL4Z.ltrans0.ltrans.o
                                                  C:\Users\Ciccio\AppData\Local\Temp\ccXVDL4Z.ltrans7.ltrans.o
__func__.7042.lto_priv.280                        C:\Users\Ciccio\AppData\Local\Temp\ccXVDL4Z.ltrans0.ltrans.o
                                                  C:\Users\Ciccio\AppData\Local\Temp\ccXVDL4Z.ltrans7.ltrans.o
__func__.7044.lto_priv.109                        C:\Users\Ciccio\AppData\Local\Temp\ccXVDL4Z.ltrans0.ltrans.o
                                                  C:\Users\Ciccio\AppData\Local\Temp\ccXVDL4Z.ltrans8.ltrans.o
__func__.7044.lto_priv.110                        C:\Users\Ciccio\AppData\Local\Temp\ccXVDL4Z.ltrans0.ltrans.o
                                                  C:\Users\Ciccio\AppData\Local\Temp\ccXVDL4Z.ltrans7.ltrans.o
__func__.7045.lto_priv.302                        C:\Users\Ciccio\AppData\Local\Temp\ccXVDL4Z.ltrans0.ltrans.o
                                                  C:\Users\Ciccio\AppData\Local\Temp\ccXVDL4Z.ltrans7.ltrans.o
__func__.7048.lto_priv.329                        C:\Users\Ciccio\AppData\Local\Temp\ccXVDL4Z.ltrans0.ltrans.o
                                                  C:\Users\Ciccio\AppData\Local\Temp\ccXVDL4Z.ltrans8.ltrans.o
__func__.7049.lto_priv.301                        C:\Users\Ciccio\AppData\Local\Temp\ccXVDL4Z.ltrans0.ltrans.o
                                                  C:\Users\Ciccio\AppData\Local\Temp\ccXVDL4Z.ltrans7.ltrans.o
__func__.7052.lto_priv.265                        C:\Users\Ciccio\AppData\Local\Temp\ccXVDL4Z.ltrans0.ltrans.o
                                                  C:\Users\Ciccio\AppData\Local\Temp\ccXVDL4Z.ltrans6.ltrans.o
__func__.7060.lto_priv.300                        C:\Users\Ciccio\AppData\Local\Temp\ccXVDL4Z.ltrans0.ltrans.o
                                                  C:\Users\Ciccio\AppData\Local\Temp\ccXVDL4Z.ltrans7.ltrans.o
__func__.7069.lto_priv.299                        C:\Users\Ciccio\AppData\Local\Temp\ccXVDL4Z.ltrans0.ltrans.o
                                                  C:\Users\Ciccio\AppData\Local\Temp\ccXVDL4Z.ltrans7.ltrans.o
__func__.7073.lto_priv.298                        C:\Users\Ciccio\AppData\Local\Temp\ccXVDL4Z.ltrans0.ltrans.o
                                                  C:\Users\Ciccio\AppData\Local\Temp\ccXVDL4Z.ltrans7.ltrans.o
__func__.7077.lto_priv.297                        C:\Users\Ciccio\AppData\Local\Temp\ccXVDL4Z.ltrans0.ltrans.o
                                                  C:\Users\Ciccio\AppData\Local\Temp\ccXVDL4Z.ltrans7.ltrans.o
__func__.7082.lto_priv.284                        C:\Users\Ciccio\AppData\Local\Temp\ccXVDL4Z.ltrans0.ltrans.o
                                                  C:\Users\Ciccio\AppData\Local\Temp\ccXVDL4Z.ltrans7.ltrans.o
__func__.7086.lto_priv.283                        C:\Users\Ciccio\AppData\Local\Temp\ccXVDL4Z.ltrans0.ltrans.o
                                                  C:\Users\Ciccio\AppData\Local\Temp\ccXVDL4Z.ltrans7.ltrans.o
__func__.7091.lto_priv.282                        C:\Users\Ciccio\AppData\Local\Temp\ccXVDL4Z.ltrans0.ltrans.o
                                                  C:\Users\Ciccio\AppData\Local\Temp\ccXVDL4Z.ltrans7.ltrans.o
__func__.7096.lto_priv.281                        C:\Users\Ciccio\AppData\Local\Temp\ccXVDL4Z.ltrans0.ltrans.o
                                                  C:\Users\Ciccio\AppData\Local\Temp\ccXVDL4Z.ltrans7.ltrans.o
__func__.7115.lto_priv.278                        C:\Users\Ciccio\AppData\Local\Temp\ccXVDL4Z.ltrans0.ltrans.o
                                                  C:\Users\Ciccio\AppData\Local\Temp\ccXVDL4Z.ltrans7.ltrans.o
__func__.7122.lto_priv.276                        C:\Users\Ciccio\AppData\Local\Temp\ccXVDL4Z.ltrans0.ltrans.o
                                                  C:\Users\Ciccio\AppData\Local\Temp\ccXVDL4Z.ltrans7.ltrans.o
__func__.7131.lto_priv.264                        C:\Users\Ciccio\AppData\Local\Temp\ccXVDL4Z.ltrans0.ltrans.o
                                                  C:\Users\Ciccio\AppData\Local\Temp\ccXVDL4Z.ltrans6.ltrans.o
__func__.7353.lto_priv.311                        C:\Users\Ciccio\AppData\Local\Temp\ccXVDL4Z.ltrans0.ltrans.o
                                                  C:\Users\Ciccio\AppData\Local\Temp\ccXVDL4Z.ltrans8.ltrans.o
__func__.7364.lto_priv.310                        C:\Users\Ciccio\AppData\Local\Temp\ccXVDL4Z.ltrans0.ltrans.o
                                                  C:\Users\Ciccio\AppData\Local\Temp\ccXVDL4Z.ltrans8.ltrans.o
__func__.7378.lto_priv.309                        C:\Users\Ciccio\AppData\Local\Temp\ccXVDL4Z.ltrans0.ltrans.o
                                                  C:\Users\Ciccio\AppData\Local\Temp\ccXVDL4Z.ltrans8.ltrans.o
__func__.7385.lto_priv.308                        C:\Users\Ciccio\AppData\Local\Temp\ccXVDL4Z.ltrans0.ltrans.o
                                                  C:\Users\Ciccio\AppData\Local\Temp\ccXVDL4Z.ltrans8.ltrans.o
__func__.7411.lto_priv.307                        C:\Users\Ciccio\AppData\Local\Temp\ccXVDL4Z.ltrans0.ltrans.o
                                                  C:\Users\Ciccio\AppData\Local\Temp\ccXVDL4Z.ltrans8.ltrans.o
__func__.7422.lto_priv.306                        C:\Users\Ciccio\AppData\Local\Temp\ccXVDL4Z.ltrans0.ltrans.o
                                                  C:\Users\Ciccio\AppData\Local\Temp\ccXVDL4Z.ltrans8.ltrans.o
__func__.7436.lto_priv.305                        C:\Users\Ciccio\AppData\Local\Temp\ccXVDL4Z.ltrans0.ltrans.o
                                                  C:\Users\Ciccio\AppData\Local\Temp\ccXVDL4Z.ltrans8.ltrans.o
__func__.7445.lto_priv.304                        C:\Users\Ciccio\AppData\Local\Temp\ccXVDL4Z.ltrans0.ltrans.o
                                                  C:\Users\Ciccio\AppData\Local\Temp\ccXVDL4Z.ltrans8.ltrans.o
__heap_base__                                     C:\Users\Ciccio\AppData\Local\Temp\ccXVDL4Z.ltrans8.ltrans.o
                                                  build/obj/chmemcore.o (symbol from plugin)
__heap_end__                                      C:\Users\Ciccio\AppData\Local\Temp\ccXVDL4Z.ltrans8.ltrans.o
                                                  build/obj/chmemcore.o (symbol from plugin)
__init_array_end                                  build/obj/crt0_v7m.o
__init_array_start                                build/obj/crt0_v7m.o
__init_ram_areas                                  C:\Users\Ciccio\AppData\Local\Temp\ccXVDL4Z.ltrans11.ltrans.o
                                                  build/obj/crt1.o (symbol from plugin)
                                                  build/obj/crt0_v7m.o
__late_init                                       C:\Users\Ciccio\AppData\Local\Temp\ccXVDL4Z.ltrans11.ltrans.o
                                                  build/obj/crt1.o (symbol from plugin)
                                                  build/obj/crt0_v7m.o
__main_stack_base__                               build/obj/crt0_v7m.o
__main_stack_end__                                C:\Users\Ciccio\AppData\Local\Temp\ccXVDL4Z.ltrans0.ltrans.o
                                                  build/obj/vectors.o (symbol from plugin)
                                                  build/obj/crt0_v7m.o
__main_thread_stack_base__                        C:\Users\Ciccio\AppData\Local\Temp\ccXVDL4Z.ltrans11.ltrans.o
                                                  build/obj/chsys.o (symbol from plugin)
__process_stack_base__                            build/obj/crt0_v7m.o
__process_stack_end__                             build/obj/crt0_v7m.o
__ram0_clear__                                    C:\Users\Ciccio\AppData\Local\Temp\ccXVDL4Z.ltrans0.ltrans.o
                                                  build/obj/crt1.o (symbol from plugin)
__ram0_init__                                     C:\Users\Ciccio\AppData\Local\Temp\ccXVDL4Z.ltrans0.ltrans.o
                                                  build/obj/crt1.o (symbol from plugin)
__ram0_init_text__                                C:\Users\Ciccio\AppData\Local\Temp\ccXVDL4Z.ltrans0.ltrans.o
                                                  build/obj/crt1.o (symbol from plugin)
__ram0_noinit__                                   C:\Users\Ciccio\AppData\Local\Temp\ccXVDL4Z.ltrans0.ltrans.o
                                                  build/obj/crt1.o (symbol from plugin)
__ram1_clear__                                    C:\Users\Ciccio\AppData\Local\Temp\ccXVDL4Z.ltrans0.ltrans.o
                                                  build/obj/crt1.o (symbol from plugin)
__ram1_init__                                     C:\Users\Ciccio\AppData\Local\Temp\ccXVDL4Z.ltrans0.ltrans.o
                                                  build/obj/crt1.o (symbol from plugin)
__ram1_init_text__                                C:\Users\Ciccio\AppData\Local\Temp\ccXVDL4Z.ltrans0.ltrans.o
                                                  build/obj/crt1.o (symbol from plugin)
__ram1_noinit__                                   C:\Users\Ciccio\AppData\Local\Temp\ccXVDL4Z.ltrans0.ltrans.o
                                                  build/obj/crt1.o (symbol from plugin)
__ram2_clear__                                    C:\Users\Ciccio\AppData\Local\Temp\ccXVDL4Z.ltrans0.ltrans.o
                                                  build/obj/crt1.o (symbol from plugin)
__ram2_init__                                     C:\Users\Ciccio\AppData\Local\Temp\ccXVDL4Z.ltrans0.ltrans.o
                                                  build/obj/crt1.o (symbol from plugin)
__ram2_init_text__                                C:\Users\Ciccio\AppData\Local\Temp\ccXVDL4Z.ltrans0.ltrans.o
                                                  build/obj/crt1.o (symbol from plugin)
__ram2_noinit__                                   C:\Users\Ciccio\AppData\Local\Temp\ccXVDL4Z.ltrans0.ltrans.o
                                                  build/obj/crt1.o (symbol from plugin)
__ram3_clear__                                    C:\Users\Ciccio\AppData\Local\Temp\ccXVDL4Z.ltrans0.ltrans.o
                                                  build/obj/crt1.o (symbol from plugin)
__ram3_init__                                     C:\Users\Ciccio\AppData\Local\Temp\ccXVDL4Z.ltrans0.ltrans.o
                                                  build/obj/crt1.o (symbol from plugin)
__ram3_init_text__                                C:\Users\Ciccio\AppData\Local\Temp\ccXVDL4Z.ltrans0.ltrans.o
                                                  build/obj/crt1.o (symbol from plugin)
__ram3_noinit__                                   C:\Users\Ciccio\AppData\Local\Temp\ccXVDL4Z.ltrans0.ltrans.o
                                                  build/obj/crt1.o (symbol from plugin)
__ram4_clear__                                    C:\Users\Ciccio\AppData\Local\Temp\ccXVDL4Z.ltrans0.ltrans.o
                                                  build/obj/crt1.o (symbol from plugin)
__ram4_init__                                     C:\Users\Ciccio\AppData\Local\Temp\ccXVDL4Z.ltrans0.ltrans.o
                                                  build/obj/crt1.o (symbol from plugin)
__ram4_init_text__                                C:\Users\Ciccio\AppData\Local\Temp\ccXVDL4Z.ltrans0.ltrans.o
                                                  build/obj/crt1.o (symbol from plugin)
__ram4_noinit__                                   C:\Users\Ciccio\AppData\Local\Temp\ccXVDL4Z.ltrans0.ltrans.o
                                                  build/obj/crt1.o (symbol from plugin)
__ram5_clear__                                    C:\Users\Ciccio\AppData\Local\Temp\ccXVDL4Z.ltrans0.ltrans.o
                                                  build/obj/crt1.o (symbol from plugin)
__ram5_init__                                     C:\Users\Ciccio\AppData\Local\Temp\ccXVDL4Z.ltrans0.ltrans.o
                                                  build/obj/crt1.o (symbol from plugin)
__ram5_init_text__                                C:\Users\Ciccio\AppData\Local\Temp\ccXVDL4Z.ltrans0.ltrans.o
                                                  build/obj/crt1.o (symbol from plugin)
__ram5_noinit__                                   C:\Users\Ciccio\AppData\Local\Temp\ccXVDL4Z.ltrans0.ltrans.o
                                                  build/obj/crt1.o (symbol from plugin)
__ram6_clear__                                    C:\Users\Ciccio\AppData\Local\Temp\ccXVDL4Z.ltrans0.ltrans.o
                                                  build/obj/crt1.o (symbol from plugin)
__ram6_init__                                     C:\Users\Ciccio\AppData\Local\Temp\ccXVDL4Z.ltrans0.ltrans.o
                                                  build/obj/crt1.o (symbol from plugin)
__ram6_init_text__                                C:\Users\Ciccio\AppData\Local\Temp\ccXVDL4Z.ltrans0.ltrans.o
                                                  build/obj/crt1.o (symbol from plugin)
__ram6_noinit__                                   C:\Users\Ciccio\AppData\Local\Temp\ccXVDL4Z.ltrans0.ltrans.o
                                                  build/obj/crt1.o (symbol from plugin)
__ram7_clear__                                    C:\Users\Ciccio\AppData\Local\Temp\ccXVDL4Z.ltrans0.ltrans.o
                                                  build/obj/crt1.o (symbol from plugin)
__ram7_init__                                     C:\Users\Ciccio\AppData\Local\Temp\ccXVDL4Z.ltrans0.ltrans.o
                                                  build/obj/crt1.o (symbol from plugin)
__ram7_init_text__                                C:\Users\Ciccio\AppData\Local\Temp\ccXVDL4Z.ltrans0.ltrans.o
                                                  build/obj/crt1.o (symbol from plugin)
__ram7_noinit__                                   C:\Users\Ciccio\AppData\Local\Temp\ccXVDL4Z.ltrans0.ltrans.o
                                                  build/obj/crt1.o (symbol from plugin)
_atoi_r                                           c:/chibistudio/tools/gnu tools arm embedded/4.9 2015q3/bin/../lib/gcc/arm-none-eabi/4.9.3/../../../../arm-none-eabi/lib/armv7e-m\libg.a(lib_a-atoi.o)
_bss_end                                          build/obj/crt0_v7m.o
_bss_start                                        build/obj/crt0_v7m.o
_core_init                                        C:\Users\Ciccio\AppData\Local\Temp\ccXVDL4Z.ltrans8.ltrans.o
                                                  build/obj/chmemcore.o (symbol from plugin)
                                                  C:\Users\Ciccio\AppData\Local\Temp\ccXVDL4Z.ltrans11.ltrans.o
                                                  build/obj/chsys.o (symbol from plugin)
_ctype_                                           c:/chibistudio/tools/gnu tools arm embedded/4.9 2015q3/bin/../lib/gcc/arm-none-eabi/4.9.3/../../../../arm-none-eabi/lib/armv7e-m\libg.a(lib_a-ctype_.o)
_data_end                                         build/obj/crt0_v7m.o
_data_start                                       build/obj/crt0_v7m.o
_dbg_check_disable                                C:\Users\Ciccio\AppData\Local\Temp\ccXVDL4Z.ltrans11.ltrans.o
                                                  build/obj/chdebug.o (symbol from plugin)
                                                  C:\Users\Ciccio\AppData\Local\Temp\ccXVDL4Z.ltrans1.ltrans.o
                                                  build/obj/testsys.o (symbol from plugin)
_dbg_check_enable                                 C:\Users\Ciccio\AppData\Local\Temp\ccXVDL4Z.ltrans11.ltrans.o
                                                  build/obj/chdebug.o (symbol from plugin)
                                                  C:\Users\Ciccio\AppData\Local\Temp\ccXVDL4Z.ltrans1.ltrans.o
                                                  build/obj/testsys.o (symbol from plugin)
                                                  build/obj/chsys.o (symbol from plugin)
_dbg_check_enter_isr                              C:\Users\Ciccio\AppData\Local\Temp\ccXVDL4Z.ltrans11.ltrans.o
                                                  build/obj/chdebug.o (symbol from plugin)
                                                  C:\Users\Ciccio\AppData\Local\Temp\ccXVDL4Z.ltrans7.ltrans.o
                                                  C:\Users\Ciccio\AppData\Local\Temp\ccXVDL4Z.ltrans6.ltrans.o
                                                  C:\Users\Ciccio\AppData\Local\Temp\ccXVDL4Z.ltrans5.ltrans.o
                                                  build/obj/serial_lld.o (symbol from plugin)
                                                  build/obj/i2c_lld.o (symbol from plugin)
                                                  build/obj/st_lld.o (symbol from plugin)
                                                  build/obj/stm32_dma.o (symbol from plugin)
_dbg_check_leave_isr                              C:\Users\Ciccio\AppData\Local\Temp\ccXVDL4Z.ltrans11.ltrans.o
                                                  build/obj/chdebug.o (symbol from plugin)
                                                  C:\Users\Ciccio\AppData\Local\Temp\ccXVDL4Z.ltrans7.ltrans.o
                                                  C:\Users\Ciccio\AppData\Local\Temp\ccXVDL4Z.ltrans6.ltrans.o
                                                  C:\Users\Ciccio\AppData\Local\Temp\ccXVDL4Z.ltrans5.ltrans.o
                                                  build/obj/serial_lld.o (symbol from plugin)
                                                  build/obj/i2c_lld.o (symbol from plugin)
                                                  build/obj/st_lld.o (symbol from plugin)
                                                  build/obj/stm32_dma.o (symbol from plugin)
_dbg_check_lock                                   C:\Users\Ciccio\AppData\Local\Temp\ccXVDL4Z.ltrans11.ltrans.o
                                                  build/obj/chdebug.o (symbol from plugin)
                                                  C:\Users\Ciccio\AppData\Local\Temp\ccXVDL4Z.ltrans10.ltrans.o
                                                  C:\Users\Ciccio\AppData\Local\Temp\ccXVDL4Z.ltrans9.ltrans.o
                                                  C:\Users\Ciccio\AppData\Local\Temp\ccXVDL4Z.ltrans8.ltrans.o
                                                  C:\Users\Ciccio\AppData\Local\Temp\ccXVDL4Z.ltrans7.ltrans.o
                                                  C:\Users\Ciccio\AppData\Local\Temp\ccXVDL4Z.ltrans6.ltrans.o
                                                  C:\Users\Ciccio\AppData\Local\Temp\ccXVDL4Z.ltrans5.ltrans.o
                                                  C:\Users\Ciccio\AppData\Local\Temp\ccXVDL4Z.ltrans4.ltrans.o
                                                  C:\Users\Ciccio\AppData\Local\Temp\ccXVDL4Z.ltrans3.ltrans.o
                                                  C:\Users\Ciccio\AppData\Local\Temp\ccXVDL4Z.ltrans2.ltrans.o
                                                  C:\Users\Ciccio\AppData\Local\Temp\ccXVDL4Z.ltrans1.ltrans.o
                                                  build/obj/testbmk.o (symbol from plugin)
                                                  build/obj/testsys.o (symbol from plugin)
                                                  build/obj/testqueues.o (symbol from plugin)
                                                  build/obj/testevt.o (symbol from plugin)
                                                  build/obj/testmbox.o (symbol from plugin)
                                                  build/obj/testmtx.o (symbol from plugin)
                                                  build/obj/testsem.o (symbol from plugin)
                                                  build/obj/testthd.o (symbol from plugin)
                                                  build/obj/test.o (symbol from plugin)
                                                  build/obj/i2c_lld.o (symbol from plugin)
                                                  build/obj/serial.o (symbol from plugin)
                                                  build/obj/i2c.o (symbol from plugin)
                                                  build/obj/hal_buffers.o (symbol from plugin)
                                                  build/obj/chmempools.o (symbol from plugin)
                                                  build/obj/chmemcore.o (symbol from plugin)
                                                  build/obj/chqueues.o (symbol from plugin)
                                                  build/obj/chmboxes.o (symbol from plugin)
                                                  build/obj/chmsg.o (symbol from plugin)
                                                  build/obj/chevents.o (symbol from plugin)
                                                  build/obj/chcond.o (symbol from plugin)
                                                  build/obj/chmtx.o (symbol from plugin)
                                                  build/obj/chsem.o (symbol from plugin)
                                                  build/obj/chregistry.o (symbol from plugin)
                                                  build/obj/chdynamic.o (symbol from plugin)
                                                  build/obj/chthreads.o (symbol from plugin)
                                                  build/obj/chsys.o (symbol from plugin)
                                                  build/obj/chcoreasm_v7m.o
_dbg_check_lock_from_isr                          C:\Users\Ciccio\AppData\Local\Temp\ccXVDL4Z.ltrans11.ltrans.o
                                                  build/obj/chdebug.o (symbol from plugin)
                                                  C:\Users\Ciccio\AppData\Local\Temp\ccXVDL4Z.ltrans6.ltrans.o
                                                  C:\Users\Ciccio\AppData\Local\Temp\ccXVDL4Z.ltrans1.ltrans.o
                                                  build/obj/testsys.o (symbol from plugin)
                                                  build/obj/serial_lld.o (symbol from plugin)
                                                  build/obj/i2c_lld.o (symbol from plugin)
                                                  build/obj/st_lld.o (symbol from plugin)
                                                  build/obj/chschd.o (symbol from plugin)
                                                  build/obj/chsys.o (symbol from plugin)
_dbg_check_suspend                                C:\Users\Ciccio\AppData\Local\Temp\ccXVDL4Z.ltrans11.ltrans.o
                                                  build/obj/chdebug.o (symbol from plugin)
                                                  C:\Users\Ciccio\AppData\Local\Temp\ccXVDL4Z.ltrans1.ltrans.o
                                                  build/obj/testsys.o (symbol from plugin)
_dbg_check_unlock                                 C:\Users\Ciccio\AppData\Local\Temp\ccXVDL4Z.ltrans11.ltrans.o
                                                  build/obj/chdebug.o (symbol from plugin)
                                                  C:\Users\Ciccio\AppData\Local\Temp\ccXVDL4Z.ltrans10.ltrans.o
                                                  C:\Users\Ciccio\AppData\Local\Temp\ccXVDL4Z.ltrans9.ltrans.o
                                                  C:\Users\Ciccio\AppData\Local\Temp\ccXVDL4Z.ltrans8.ltrans.o
                                                  C:\Users\Ciccio\AppData\Local\Temp\ccXVDL4Z.ltrans7.ltrans.o
                                                  C:\Users\Ciccio\AppData\Local\Temp\ccXVDL4Z.ltrans6.ltrans.o
                                                  C:\Users\Ciccio\AppData\Local\Temp\ccXVDL4Z.ltrans5.ltrans.o
                                                  C:\Users\Ciccio\AppData\Local\Temp\ccXVDL4Z.ltrans4.ltrans.o
                                                  C:\Users\Ciccio\AppData\Local\Temp\ccXVDL4Z.ltrans3.ltrans.o
                                                  C:\Users\Ciccio\AppData\Local\Temp\ccXVDL4Z.ltrans2.ltrans.o
                                                  C:\Users\Ciccio\AppData\Local\Temp\ccXVDL4Z.ltrans1.ltrans.o
                                                  build/obj/testbmk.o (symbol from plugin)
                                                  build/obj/testsys.o (symbol from plugin)
                                                  build/obj/testqueues.o (symbol from plugin)
                                                  build/obj/testevt.o (symbol from plugin)
                                                  build/obj/testmbox.o (symbol from plugin)
                                                  build/obj/testmtx.o (symbol from plugin)
                                                  build/obj/testsem.o (symbol from plugin)
                                                  build/obj/testthd.o (symbol from plugin)
                                                  build/obj/test.o (symbol from plugin)
                                                  build/obj/i2c_lld.o (symbol from plugin)
                                                  build/obj/serial.o (symbol from plugin)
                                                  build/obj/i2c.o (symbol from plugin)
                                                  build/obj/hal_buffers.o (symbol from plugin)
                                                  build/obj/chmempools.o (symbol from plugin)
                                                  build/obj/chmemcore.o (symbol from plugin)
                                                  build/obj/chqueues.o (symbol from plugin)
                                                  build/obj/chmboxes.o (symbol from plugin)
                                                  build/obj/chmsg.o (symbol from plugin)
                                                  build/obj/chevents.o (symbol from plugin)
                                                  build/obj/chcond.o (symbol from plugin)
                                                  build/obj/chmtx.o (symbol from plugin)
                                                  build/obj/chsem.o (symbol from plugin)
                                                  build/obj/chregistry.o (symbol from plugin)
                                                  build/obj/chdynamic.o (symbol from plugin)
                                                  build/obj/chthreads.o (symbol from plugin)
                                                  build/obj/chsys.o (symbol from plugin)
                                                  build/obj/chcoreasm_v7m.o
_dbg_check_unlock_from_isr                        C:\Users\Ciccio\AppData\Local\Temp\ccXVDL4Z.ltrans11.ltrans.o
                                                  build/obj/chdebug.o (symbol from plugin)
                                                  C:\Users\Ciccio\AppData\Local\Temp\ccXVDL4Z.ltrans6.ltrans.o
                                                  C:\Users\Ciccio\AppData\Local\Temp\ccXVDL4Z.ltrans1.ltrans.o
                                                  build/obj/testsys.o (symbol from plugin)
                                                  build/obj/serial_lld.o (symbol from plugin)
                                                  build/obj/i2c_lld.o (symbol from plugin)
                                                  build/obj/st_lld.o (symbol from plugin)
                                                  build/obj/chschd.o (symbol from plugin)
                                                  build/obj/chsys.o (symbol from plugin)
_dbg_trace                                        build/obj/chdebug.o (symbol from plugin)
                                                  build/obj/chschd.o (symbol from plugin)
_dbg_trace_init                                   build/obj/chdebug.o (symbol from plugin)
                                                  build/obj/chsys.o (symbol from plugin)
_global_impure_ptr                                c:/chibistudio/tools/gnu tools arm embedded/4.9 2015q3/bin/../lib/gcc/arm-none-eabi/4.9.3/../../../../arm-none-eabi/lib/armv7e-m\libg.a(lib_a-impure.o)
_heap_init                                        C:\Users\Ciccio\AppData\Local\Temp\ccXVDL4Z.ltrans8.ltrans.o
                                                  build/obj/chheap.o (symbol from plugin)
                                                  C:\Users\Ciccio\AppData\Local\Temp\ccXVDL4Z.ltrans11.ltrans.o
                                                  build/obj/chsys.o (symbol from plugin)
_impure_ptr                                       c:/chibistudio/tools/gnu tools arm embedded/4.9 2015q3/bin/../lib/gcc/arm-none-eabi/4.9.3/../../../../arm-none-eabi/lib/armv7e-m\libg.a(lib_a-impure.o)
                                                  c:/chibistudio/tools/gnu tools arm embedded/4.9 2015q3/bin/../lib/gcc/arm-none-eabi/4.9.3/../../../../arm-none-eabi/lib/armv7e-m\libg.a(lib_a-strtol.o)
_pal_lld_init                                     C:\Users\Ciccio\AppData\Local\Temp\ccXVDL4Z.ltrans6.ltrans.o
                                                  build/obj/pal_lld.o (symbol from plugin)
                                                  C:\Users\Ciccio\AppData\Local\Temp\ccXVDL4Z.ltrans8.ltrans.o
                                                  build/obj/hal.o (symbol from plugin)
_pal_lld_setgroupmode                             C:\Users\Ciccio\AppData\Local\Temp\ccXVDL4Z.ltrans6.ltrans.o
                                                  build/obj/pal_lld.o (symbol from plugin)
                                                  C:\Users\Ciccio\AppData\Local\Temp\ccXVDL4Z.ltrans7.ltrans.o
                                                  C:\Users\Ciccio\AppData\Local\Temp\ccXVDL4Z.ltrans0.ltrans.o
                                                  build/obj/main.o (symbol from plugin)
                                                  build/obj/pal.o (symbol from plugin)
_port_exit_from_isr                               build/obj/chcoreasm_v7m.o
                                                  C:\Users\Ciccio\AppData\Local\Temp\ccXVDL4Z.ltrans8.ltrans.o
                                                  build/obj/chcore_v7m.o (symbol from plugin)
_port_irq_epilogue                                C:\Users\Ciccio\AppData\Local\Temp\ccXVDL4Z.ltrans8.ltrans.o
                                                  build/obj/chcore_v7m.o (symbol from plugin)
                                                  C:\Users\Ciccio\AppData\Local\Temp\ccXVDL4Z.ltrans7.ltrans.o
                                                  C:\Users\Ciccio\AppData\Local\Temp\ccXVDL4Z.ltrans6.ltrans.o
                                                  C:\Users\Ciccio\AppData\Local\Temp\ccXVDL4Z.ltrans5.ltrans.o
                                                  build/obj/serial_lld.o (symbol from plugin)
                                                  build/obj/i2c_lld.o (symbol from plugin)
                                                  build/obj/st_lld.o (symbol from plugin)
                                                  build/obj/stm32_dma.o (symbol from plugin)
_port_switch                                      build/obj/chcoreasm_v7m.o
                                                  C:\Users\Ciccio\AppData\Local\Temp\ccXVDL4Z.ltrans11.ltrans.o
                                                  build/obj/chschd.o (symbol from plugin)
_port_switch_from_isr                             build/obj/chcoreasm_v7m.o
                                                  C:\Users\Ciccio\AppData\Local\Temp\ccXVDL4Z.ltrans8.ltrans.o
                                                  build/obj/chcore_v7m.o (symbol from plugin)
_port_thread_start                                build/obj/chcoreasm_v7m.o
                                                  C:\Users\Ciccio\AppData\Local\Temp\ccXVDL4Z.ltrans11.ltrans.o
                                                  build/obj/chthreads.o (symbol from plugin)
_scheduler_init                                   build/obj/chschd.o (symbol from plugin)
                                                  build/obj/chsys.o (symbol from plugin)
_stats_ctxswc                                     C:\Users\Ciccio\AppData\Local\Temp\ccXVDL4Z.ltrans10.ltrans.o
                                                  build/obj/chstats.o (symbol from plugin)
                                                  C:\Users\Ciccio\AppData\Local\Temp\ccXVDL4Z.ltrans11.ltrans.o
                                                  build/obj/chschd.o (symbol from plugin)
_stats_increase_irq                               C:\Users\Ciccio\AppData\Local\Temp\ccXVDL4Z.ltrans10.ltrans.o
                                                  build/obj/chstats.o (symbol from plugin)
                                                  C:\Users\Ciccio\AppData\Local\Temp\ccXVDL4Z.ltrans7.ltrans.o
                                                  C:\Users\Ciccio\AppData\Local\Temp\ccXVDL4Z.ltrans6.ltrans.o
                                                  C:\Users\Ciccio\AppData\Local\Temp\ccXVDL4Z.ltrans5.ltrans.o
                                                  build/obj/serial_lld.o (symbol from plugin)
                                                  build/obj/i2c_lld.o (symbol from plugin)
                                                  build/obj/st_lld.o (symbol from plugin)
                                                  build/obj/stm32_dma.o (symbol from plugin)
_stats_init                                       C:\Users\Ciccio\AppData\Local\Temp\ccXVDL4Z.ltrans10.ltrans.o
                                                  build/obj/chstats.o (symbol from plugin)
                                                  C:\Users\Ciccio\AppData\Local\Temp\ccXVDL4Z.ltrans11.ltrans.o
                                                  build/obj/chsys.o (symbol from plugin)
_stats_start_measure_crit_isr                     C:\Users\Ciccio\AppData\Local\Temp\ccXVDL4Z.ltrans10.ltrans.o
                                                  build/obj/chstats.o (symbol from plugin)
                                                  C:\Users\Ciccio\AppData\Local\Temp\ccXVDL4Z.ltrans11.ltrans.o
                                                  C:\Users\Ciccio\AppData\Local\Temp\ccXVDL4Z.ltrans6.ltrans.o
                                                  C:\Users\Ciccio\AppData\Local\Temp\ccXVDL4Z.ltrans1.ltrans.o
                                                  build/obj/testsys.o (symbol from plugin)
                                                  build/obj/serial_lld.o (symbol from plugin)
                                                  build/obj/i2c_lld.o (symbol from plugin)
                                                  build/obj/st_lld.o (symbol from plugin)
                                                  build/obj/chschd.o (symbol from plugin)
                                                  build/obj/chsys.o (symbol from plugin)
_stats_start_measure_crit_thd                     C:\Users\Ciccio\AppData\Local\Temp\ccXVDL4Z.ltrans10.ltrans.o
                                                  build/obj/chstats.o (symbol from plugin)
                                                  C:\Users\Ciccio\AppData\Local\Temp\ccXVDL4Z.ltrans11.ltrans.o
                                                  C:\Users\Ciccio\AppData\Local\Temp\ccXVDL4Z.ltrans9.ltrans.o
                                                  C:\Users\Ciccio\AppData\Local\Temp\ccXVDL4Z.ltrans8.ltrans.o
                                                  C:\Users\Ciccio\AppData\Local\Temp\ccXVDL4Z.ltrans7.ltrans.o
                                                  C:\Users\Ciccio\AppData\Local\Temp\ccXVDL4Z.ltrans6.ltrans.o
                                                  C:\Users\Ciccio\AppData\Local\Temp\ccXVDL4Z.ltrans5.ltrans.o
                                                  C:\Users\Ciccio\AppData\Local\Temp\ccXVDL4Z.ltrans4.ltrans.o
                                                  C:\Users\Ciccio\AppData\Local\Temp\ccXVDL4Z.ltrans3.ltrans.o
                                                  C:\Users\Ciccio\AppData\Local\Temp\ccXVDL4Z.ltrans2.ltrans.o
                                                  C:\Users\Ciccio\AppData\Local\Temp\ccXVDL4Z.ltrans1.ltrans.o
                                                  build/obj/testbmk.o (symbol from plugin)
                                                  build/obj/testsys.o (symbol from plugin)
                                                  build/obj/testqueues.o (symbol from plugin)
                                                  build/obj/testevt.o (symbol from plugin)
                                                  build/obj/testmbox.o (symbol from plugin)
                                                  build/obj/testmtx.o (symbol from plugin)
                                                  build/obj/testsem.o (symbol from plugin)
                                                  build/obj/testthd.o (symbol from plugin)
                                                  build/obj/test.o (symbol from plugin)
                                                  build/obj/i2c_lld.o (symbol from plugin)
                                                  build/obj/serial.o (symbol from plugin)
                                                  build/obj/i2c.o (symbol from plugin)
                                                  build/obj/hal_buffers.o (symbol from plugin)
                                                  build/obj/chmempools.o (symbol from plugin)
                                                  build/obj/chmemcore.o (symbol from plugin)
                                                  build/obj/chqueues.o (symbol from plugin)
                                                  build/obj/chmboxes.o (symbol from plugin)
                                                  build/obj/chmsg.o (symbol from plugin)
                                                  build/obj/chevents.o (symbol from plugin)
                                                  build/obj/chcond.o (symbol from plugin)
                                                  build/obj/chmtx.o (symbol from plugin)
                                                  build/obj/chsem.o (symbol from plugin)
                                                  build/obj/chregistry.o (symbol from plugin)
                                                  build/obj/chdynamic.o (symbol from plugin)
                                                  build/obj/chthreads.o (symbol from plugin)
                                                  build/obj/chsys.o (symbol from plugin)
                                                  build/obj/chcoreasm_v7m.o
_stats_stop_measure_crit_isr                      C:\Users\Ciccio\AppData\Local\Temp\ccXVDL4Z.ltrans10.ltrans.o
                                                  build/obj/chstats.o (symbol from plugin)
                                                  C:\Users\Ciccio\AppData\Local\Temp\ccXVDL4Z.ltrans11.ltrans.o
                                                  C:\Users\Ciccio\AppData\Local\Temp\ccXVDL4Z.ltrans6.ltrans.o
                                                  C:\Users\Ciccio\AppData\Local\Temp\ccXVDL4Z.ltrans1.ltrans.o
                                                  build/obj/testsys.o (symbol from plugin)
                                                  build/obj/serial_lld.o (symbol from plugin)
                                                  build/obj/i2c_lld.o (symbol from plugin)
                                                  build/obj/st_lld.o (symbol from plugin)
                                                  build/obj/chschd.o (symbol from plugin)
                                                  build/obj/chsys.o (symbol from plugin)
_stats_stop_measure_crit_thd                      C:\Users\Ciccio\AppData\Local\Temp\ccXVDL4Z.ltrans10.ltrans.o
                                                  build/obj/chstats.o (symbol from plugin)
                                                  C:\Users\Ciccio\AppData\Local\Temp\ccXVDL4Z.ltrans11.ltrans.o
                                                  C:\Users\Ciccio\AppData\Local\Temp\ccXVDL4Z.ltrans9.ltrans.o
                                                  C:\Users\Ciccio\AppData\Local\Temp\ccXVDL4Z.ltrans8.ltrans.o
                                                  C:\Users\Ciccio\AppData\Local\Temp\ccXVDL4Z.ltrans7.ltrans.o
                                                  C:\Users\Ciccio\AppData\Local\Temp\ccXVDL4Z.ltrans6.ltrans.o
                                                  C:\Users\Ciccio\AppData\Local\Temp\ccXVDL4Z.ltrans5.ltrans.o
                                                  C:\Users\Ciccio\AppData\Local\Temp\ccXVDL4Z.ltrans4.ltrans.o
                                                  C:\Users\Ciccio\AppData\Local\Temp\ccXVDL4Z.ltrans3.ltrans.o
                                                  C:\Users\Ciccio\AppData\Local\Temp\ccXVDL4Z.ltrans2.ltrans.o
                                                  C:\Users\Ciccio\AppData\Local\Temp\ccXVDL4Z.ltrans1.ltrans.o
                                                  build/obj/testbmk.o (symbol from plugin)
                                                  build/obj/testsys.o (symbol from plugin)
                                                  build/obj/testqueues.o (symbol from plugin)
                                                  build/obj/testevt.o (symbol from plugin)
                                                  build/obj/testmbox.o (symbol from plugin)
                                                  build/obj/testmtx.o (symbol from plugin)
                                                  build/obj/testsem.o (symbol from plugin)
                                                  build/obj/testthd.o (symbol from plugin)
                                                  build/obj/test.o (symbol from plugin)
                                                  build/obj/i2c_lld.o (symbol from plugin)
                                                  build/obj/serial.o (symbol from plugin)
                                                  build/obj/i2c.o (symbol from plugin)
                                                  build/obj/hal_buffers.o (symbol from plugin)
                                                  build/obj/chmempools.o (symbol from plugin)
                                                  build/obj/chmemcore.o (symbol from plugin)
                                                  build/obj/chqueues.o (symbol from plugin)
                                                  build/obj/chmboxes.o (symbol from plugin)
                                                  build/obj/chmsg.o (symbol from plugin)
                                                  build/obj/chevents.o (symbol from plugin)
                                                  build/obj/chcond.o (symbol from plugin)
                                                  build/obj/chmtx.o (symbol from plugin)
                                                  build/obj/chsem.o (symbol from plugin)
                                                  build/obj/chregistry.o (symbol from plugin)
                                                  build/obj/chdynamic.o (symbol from plugin)
                                                  build/obj/chthreads.o (symbol from plugin)
                                                  build/obj/chsys.o (symbol from plugin)
                                                  build/obj/chcoreasm_v7m.o
_stm32_dma_streams                                C:\Users\Ciccio\AppData\Local\Temp\ccXVDL4Z.ltrans0.ltrans.o
                                                  build/obj/stm32_dma.o (symbol from plugin)
                                                  C:\Users\Ciccio\AppData\Local\Temp\ccXVDL4Z.ltrans7.ltrans.o
                                                  C:\Users\Ciccio\AppData\Local\Temp\ccXVDL4Z.ltrans6.ltrans.o
                                                  build/obj/i2c_lld.o (symbol from plugin)
_strtol_r                                         c:/chibistudio/tools/gnu tools arm embedded/4.9 2015q3/bin/../lib/gcc/arm-none-eabi/4.9.3/../../../../arm-none-eabi/lib/armv7e-m\libg.a(lib_a-strtol.o)
                                                  c:/chibistudio/tools/gnu tools arm embedded/4.9 2015q3/bin/../lib/gcc/arm-none-eabi/4.9.3/../../../../arm-none-eabi/lib/armv7e-m\libg.a(lib_a-atoi.o)
_test_assert                                      C:\Users\Ciccio\AppData\Local\Temp\ccXVDL4Z.ltrans5.ltrans.o
                                                  build/obj/test.o (symbol from plugin)
                                                  C:\Users\Ciccio\AppData\Local\Temp\ccXVDL4Z.ltrans4.ltrans.o
                                                  C:\Users\Ciccio\AppData\Local\Temp\ccXVDL4Z.ltrans3.ltrans.o
                                                  C:\Users\Ciccio\AppData\Local\Temp\ccXVDL4Z.ltrans2.ltrans.o
                                                  C:\Users\Ciccio\AppData\Local\Temp\ccXVDL4Z.ltrans1.ltrans.o
                                                  build/obj/testsys.o (symbol from plugin)
                                                  build/obj/testqueues.o (symbol from plugin)
                                                  build/obj/testdyn.o (symbol from plugin)
                                                  build/obj/testpools.o (symbol from plugin)
                                                  build/obj/testheap.o (symbol from plugin)
                                                  build/obj/testevt.o (symbol from plugin)
                                                  build/obj/testmbox.o (symbol from plugin)
                                                  build/obj/testmtx.o (symbol from plugin)
                                                  build/obj/testsem.o (symbol from plugin)
                                                  build/obj/testthd.o (symbol from plugin)
_test_assert_sequence                             C:\Users\Ciccio\AppData\Local\Temp\ccXVDL4Z.ltrans5.ltrans.o
                                                  build/obj/test.o (symbol from plugin)
                                                  C:\Users\Ciccio\AppData\Local\Temp\ccXVDL4Z.ltrans4.ltrans.o
                                                  C:\Users\Ciccio\AppData\Local\Temp\ccXVDL4Z.ltrans3.ltrans.o
                                                  C:\Users\Ciccio\AppData\Local\Temp\ccXVDL4Z.ltrans2.ltrans.o
                                                  C:\Users\Ciccio\AppData\Local\Temp\ccXVDL4Z.ltrans1.ltrans.o
                                                  build/obj/testqueues.o (symbol from plugin)
                                                  build/obj/testdyn.o (symbol from plugin)
                                                  build/obj/testevt.o (symbol from plugin)
                                                  build/obj/testmbox.o (symbol from plugin)
                                                  build/obj/testmsg.o (symbol from plugin)
                                                  build/obj/testmtx.o (symbol from plugin)
                                                  build/obj/testsem.o (symbol from plugin)
                                                  build/obj/testthd.o (symbol from plugin)
_test_assert_time_window                          C:\Users\Ciccio\AppData\Local\Temp\ccXVDL4Z.ltrans5.ltrans.o
                                                  build/obj/test.o (symbol from plugin)
                                                  C:\Users\Ciccio\AppData\Local\Temp\ccXVDL4Z.ltrans4.ltrans.o
                                                  C:\Users\Ciccio\AppData\Local\Temp\ccXVDL4Z.ltrans3.ltrans.o
                                                  build/obj/testevt.o (symbol from plugin)
                                                  build/obj/testsem.o (symbol from plugin)
                                                  build/obj/testthd.o (symbol from plugin)
_test_fail                                        build/obj/test.o (symbol from plugin)
_textdata_start                                   build/obj/crt0_v7m.o
_thread_init                                      build/obj/chthreads.o (symbol from plugin)
                                                  build/obj/chsys.o (symbol from plugin)
_thread_memfill                                   C:\Users\Ciccio\AppData\Local\Temp\ccXVDL4Z.ltrans11.ltrans.o
                                                  build/obj/chthreads.o (symbol from plugin)
                                                  C:\Users\Ciccio\AppData\Local\Temp\ccXVDL4Z.ltrans10.ltrans.o
                                                  build/obj/chdynamic.o (symbol from plugin)
_tm_init                                          build/obj/chtm.o (symbol from plugin)
                                                  build/obj/chsys.o (symbol from plugin)
_unhandled_exception                              build/obj/vectors.o (symbol from plugin)
_vectors                                          C:\Users\Ciccio\AppData\Local\Temp\ccXVDL4Z.ltrans0.ltrans.o
                                                  build/obj/vectors.o (symbol from plugin)
_vt_init                                          build/obj/chvt.o (symbol from plugin)
                                                  build/obj/chsys.o (symbol from plugin)
atoi                                              c:/chibistudio/tools/gnu tools arm embedded/4.9 2015q3/bin/../lib/gcc/arm-none-eabi/4.9.3/../../../../arm-none-eabi/lib/armv7e-m\libg.a(lib_a-atoi.o)
                                                  C:\Users\Ciccio\AppData\Local\Temp\ccXVDL4Z.ltrans0.ltrans.o
                                                  build/obj/main.o (symbol from plugin)
bmk10_execute.lto_priv.35                         C:\Users\Ciccio\AppData\Local\Temp\ccXVDL4Z.ltrans1.ltrans.o
                                                  C:\Users\Ciccio\AppData\Local\Temp\ccXVDL4Z.ltrans0.ltrans.o
bmk11_execute.lto_priv.34                         C:\Users\Ciccio\AppData\Local\Temp\ccXVDL4Z.ltrans1.ltrans.o
                                                  C:\Users\Ciccio\AppData\Local\Temp\ccXVDL4Z.ltrans0.ltrans.o
bmk11_setup.lto_priv.33                           C:\Users\Ciccio\AppData\Local\Temp\ccXVDL4Z.ltrans1.ltrans.o
                                                  C:\Users\Ciccio\AppData\Local\Temp\ccXVDL4Z.ltrans0.ltrans.o
bmk12_execute.lto_priv.32                         C:\Users\Ciccio\AppData\Local\Temp\ccXVDL4Z.ltrans1.ltrans.o
                                                  C:\Users\Ciccio\AppData\Local\Temp\ccXVDL4Z.ltrans0.ltrans.o
bmk12_setup.lto_priv.31                           C:\Users\Ciccio\AppData\Local\Temp\ccXVDL4Z.ltrans1.ltrans.o
                                                  C:\Users\Ciccio\AppData\Local\Temp\ccXVDL4Z.ltrans0.ltrans.o
bmk1_execute.lto_priv.45                          C:\Users\Ciccio\AppData\Local\Temp\ccXVDL4Z.ltrans1.ltrans.o
                                                  C:\Users\Ciccio\AppData\Local\Temp\ccXVDL4Z.ltrans0.ltrans.o
bmk2_execute.lto_priv.44                          C:\Users\Ciccio\AppData\Local\Temp\ccXVDL4Z.ltrans1.ltrans.o
                                                  C:\Users\Ciccio\AppData\Local\Temp\ccXVDL4Z.ltrans0.ltrans.o
bmk3_execute.lto_priv.43                          C:\Users\Ciccio\AppData\Local\Temp\ccXVDL4Z.ltrans1.ltrans.o
                                                  C:\Users\Ciccio\AppData\Local\Temp\ccXVDL4Z.ltrans0.ltrans.o
bmk4_execute.lto_priv.42                          C:\Users\Ciccio\AppData\Local\Temp\ccXVDL4Z.ltrans1.ltrans.o
                                                  C:\Users\Ciccio\AppData\Local\Temp\ccXVDL4Z.ltrans0.ltrans.o
bmk5_execute.lto_priv.41                          C:\Users\Ciccio\AppData\Local\Temp\ccXVDL4Z.ltrans1.ltrans.o
                                                  C:\Users\Ciccio\AppData\Local\Temp\ccXVDL4Z.ltrans0.ltrans.o
bmk6_execute.lto_priv.40                          C:\Users\Ciccio\AppData\Local\Temp\ccXVDL4Z.ltrans1.ltrans.o
                                                  C:\Users\Ciccio\AppData\Local\Temp\ccXVDL4Z.ltrans0.ltrans.o
bmk7_execute.lto_priv.39                          C:\Users\Ciccio\AppData\Local\Temp\ccXVDL4Z.ltrans1.ltrans.o
                                                  C:\Users\Ciccio\AppData\Local\Temp\ccXVDL4Z.ltrans0.ltrans.o
bmk7_setup.lto_priv.38                            C:\Users\Ciccio\AppData\Local\Temp\ccXVDL4Z.ltrans1.ltrans.o
                                                  C:\Users\Ciccio\AppData\Local\Temp\ccXVDL4Z.ltrans0.ltrans.o
bmk8_execute.lto_priv.37                          C:\Users\Ciccio\AppData\Local\Temp\ccXVDL4Z.ltrans1.ltrans.o
                                                  C:\Users\Ciccio\AppData\Local\Temp\ccXVDL4Z.ltrans0.ltrans.o
bmk9_execute.lto_priv.36                          C:\Users\Ciccio\AppData\Local\Temp\ccXVDL4Z.ltrans1.ltrans.o
                                                  C:\Users\Ciccio\AppData\Local\Temp\ccXVDL4Z.ltrans0.ltrans.o
boardInit                                         C:\Users\Ciccio\AppData\Local\Temp\ccXVDL4Z.ltrans5.ltrans.o
                                                  build/obj/board.o (symbol from plugin)
                                                  C:\Users\Ciccio\AppData\Local\Temp\ccXVDL4Z.ltrans8.ltrans.o
                                                  build/obj/hal.o (symbol from plugin)
c1.lto_priv.193                                   C:\Users\Ciccio\AppData\Local\Temp\ccXVDL4Z.ltrans0.ltrans.o
                                                  C:\Users\Ciccio\AppData\Local\Temp\ccXVDL4Z.ltrans4.ltrans.o
ch                                                C:\Users\Ciccio\AppData\Local\Temp\ccXVDL4Z.ltrans0.ltrans.o
                                                  build/obj/chschd.o (symbol from plugin)
                                                  C:\Users\Ciccio\AppData\Local\Temp\ccXVDL4Z.ltrans11.ltrans.o
                                                  C:\Users\Ciccio\AppData\Local\Temp\ccXVDL4Z.ltrans10.ltrans.o
                                                  C:\Users\Ciccio\AppData\Local\Temp\ccXVDL4Z.ltrans9.ltrans.o
                                                  C:\Users\Ciccio\AppData\Local\Temp\ccXVDL4Z.ltrans8.ltrans.o
                                                  C:\Users\Ciccio\AppData\Local\Temp\ccXVDL4Z.ltrans7.ltrans.o
                                                  C:\Users\Ciccio\AppData\Local\Temp\ccXVDL4Z.ltrans6.ltrans.o
                                                  C:\Users\Ciccio\AppData\Local\Temp\ccXVDL4Z.ltrans5.ltrans.o
                                                  C:\Users\Ciccio\AppData\Local\Temp\ccXVDL4Z.ltrans4.ltrans.o
                                                  C:\Users\Ciccio\AppData\Local\Temp\ccXVDL4Z.ltrans3.ltrans.o
                                                  C:\Users\Ciccio\AppData\Local\Temp\ccXVDL4Z.ltrans2.ltrans.o
                                                  C:\Users\Ciccio\AppData\Local\Temp\ccXVDL4Z.ltrans1.ltrans.o
                                                  build/obj/testbmk.o (symbol from plugin)
                                                  build/obj/testsys.o (symbol from plugin)
                                                  build/obj/testqueues.o (symbol from plugin)
                                                  build/obj/testdyn.o (symbol from plugin)
                                                  build/obj/testevt.o (symbol from plugin)
                                                  build/obj/testmbox.o (symbol from plugin)
                                                  build/obj/testmsg.o (symbol from plugin)
                                                  build/obj/testmtx.o (symbol from plugin)
                                                  build/obj/testsem.o (symbol from plugin)
                                                  build/obj/testthd.o (symbol from plugin)
                                                  build/obj/test.o (symbol from plugin)
                                                  build/obj/i2c_lld.o (symbol from plugin)
                                                  build/obj/serial.o (symbol from plugin)
                                                  build/obj/i2c.o (symbol from plugin)
                                                  build/obj/hal_buffers.o (symbol from plugin)
                                                  build/obj/chmempools.o (symbol from plugin)
                                                  build/obj/chmemcore.o (symbol from plugin)
                                                  build/obj/chqueues.o (symbol from plugin)
                                                  build/obj/chmboxes.o (symbol from plugin)
                                                  build/obj/chmsg.o (symbol from plugin)
                                                  build/obj/chevents.o (symbol from plugin)
                                                  build/obj/chcond.o (symbol from plugin)
                                                  build/obj/chmtx.o (symbol from plugin)
                                                  build/obj/chsem.o (symbol from plugin)
                                                  build/obj/chregistry.o (symbol from plugin)
                                                  build/obj/chdynamic.o (symbol from plugin)
                                                  build/obj/chstats.o (symbol from plugin)
                                                  build/obj/chtm.o (symbol from plugin)
                                                  build/obj/chthreads.o (symbol from plugin)
                                                  build/obj/chvt.o (symbol from plugin)
                                                  build/obj/chdebug.o (symbol from plugin)
                                                  build/obj/chsys.o (symbol from plugin)
chBSemGetStateI.lto_priv.204                      C:\Users\Ciccio\AppData\Local\Temp\ccXVDL4Z.ltrans5.ltrans.o
                                                  C:\Users\Ciccio\AppData\Local\Temp\ccXVDL4Z.ltrans4.ltrans.o
chBSemObjectInit.lto_priv.208                     C:\Users\Ciccio\AppData\Local\Temp\ccXVDL4Z.ltrans5.ltrans.o
                                                  C:\Users\Ciccio\AppData\Local\Temp\ccXVDL4Z.ltrans4.ltrans.o
chBSemReset.lto_priv.207                          C:\Users\Ciccio\AppData\Local\Temp\ccXVDL4Z.ltrans5.ltrans.o
                                                  C:\Users\Ciccio\AppData\Local\Temp\ccXVDL4Z.ltrans4.ltrans.o
chBSemSignal.lto_priv.205                         C:\Users\Ciccio\AppData\Local\Temp\ccXVDL4Z.ltrans5.ltrans.o
                                                  C:\Users\Ciccio\AppData\Local\Temp\ccXVDL4Z.ltrans4.ltrans.o
chBSemWait.lto_priv.206                           C:\Users\Ciccio\AppData\Local\Temp\ccXVDL4Z.ltrans5.ltrans.o
                                                  C:\Users\Ciccio\AppData\Local\Temp\ccXVDL4Z.ltrans4.ltrans.o
chCondBroadcast                                   C:\Users\Ciccio\AppData\Local\Temp\ccXVDL4Z.ltrans9.ltrans.o
                                                  build/obj/chcond.o (symbol from plugin)
                                                  C:\Users\Ciccio\AppData\Local\Temp\ccXVDL4Z.ltrans4.ltrans.o
                                                  build/obj/testmtx.o (symbol from plugin)
chCondBroadcastI                                  build/obj/chcond.o (symbol from plugin)
chCondObjectInit                                  C:\Users\Ciccio\AppData\Local\Temp\ccXVDL4Z.ltrans9.ltrans.o
                                                  build/obj/chcond.o (symbol from plugin)
                                                  C:\Users\Ciccio\AppData\Local\Temp\ccXVDL4Z.ltrans4.ltrans.o
                                                  build/obj/testmtx.o (symbol from plugin)
chCondSignal                                      C:\Users\Ciccio\AppData\Local\Temp\ccXVDL4Z.ltrans9.ltrans.o
                                                  build/obj/chcond.o (symbol from plugin)
                                                  C:\Users\Ciccio\AppData\Local\Temp\ccXVDL4Z.ltrans4.ltrans.o
                                                  build/obj/testmtx.o (symbol from plugin)
chCondSignalI                                     C:\Users\Ciccio\AppData\Local\Temp\ccXVDL4Z.ltrans9.ltrans.o
                                                  build/obj/chcond.o (symbol from plugin)
                                                  C:\Users\Ciccio\AppData\Local\Temp\ccXVDL4Z.ltrans4.ltrans.o
                                                  build/obj/testmtx.o (symbol from plugin)
chCondWait                                        C:\Users\Ciccio\AppData\Local\Temp\ccXVDL4Z.ltrans9.ltrans.o
                                                  build/obj/chcond.o (symbol from plugin)
                                                  C:\Users\Ciccio\AppData\Local\Temp\ccXVDL4Z.ltrans4.ltrans.o
                                                  build/obj/testmtx.o (symbol from plugin)
chCondWaitS                                       build/obj/chcond.o (symbol from plugin)
chCondWaitTimeout                                 C:\Users\Ciccio\AppData\Local\Temp\ccXVDL4Z.ltrans9.ltrans.o
                                                  build/obj/chcond.o (symbol from plugin)
                                                  C:\Users\Ciccio\AppData\Local\Temp\ccXVDL4Z.ltrans4.ltrans.o
                                                  build/obj/testmtx.o (symbol from plugin)
chCondWaitTimeoutS                                build/obj/chcond.o (symbol from plugin)
chCoreAlloc                                       build/obj/chmemcore.o (symbol from plugin)
                                                  build/obj/chheap.o (symbol from plugin)
chCoreAllocI                                      build/obj/chmemcore.o (symbol from plugin)
chCoreGetStatusX                                  C:\Users\Ciccio\AppData\Local\Temp\ccXVDL4Z.ltrans8.ltrans.o
                                                  build/obj/chmemcore.o (symbol from plugin)
                                                  C:\Users\Ciccio\AppData\Local\Temp\ccXVDL4Z.ltrans2.ltrans.o
                                                  build/obj/testheap.o (symbol from plugin)
chDbgCheckClassI                                  C:\Users\Ciccio\AppData\Local\Temp\ccXVDL4Z.ltrans11.ltrans.o
                                                  build/obj/chdebug.o (symbol from plugin)
                                                  C:\Users\Ciccio\AppData\Local\Temp\ccXVDL4Z.ltrans10.ltrans.o
                                                  C:\Users\Ciccio\AppData\Local\Temp\ccXVDL4Z.ltrans9.ltrans.o
                                                  C:\Users\Ciccio\AppData\Local\Temp\ccXVDL4Z.ltrans8.ltrans.o
                                                  C:\Users\Ciccio\AppData\Local\Temp\ccXVDL4Z.ltrans7.ltrans.o
                                                  C:\Users\Ciccio\AppData\Local\Temp\ccXVDL4Z.ltrans6.ltrans.o
                                                  C:\Users\Ciccio\AppData\Local\Temp\ccXVDL4Z.ltrans5.ltrans.o
                                                  C:\Users\Ciccio\AppData\Local\Temp\ccXVDL4Z.ltrans4.ltrans.o
                                                  C:\Users\Ciccio\AppData\Local\Temp\ccXVDL4Z.ltrans2.ltrans.o
                                                  C:\Users\Ciccio\AppData\Local\Temp\ccXVDL4Z.ltrans1.ltrans.o
                                                  build/obj/testsys.o (symbol from plugin)
                                                  build/obj/testqueues.o (symbol from plugin)
                                                  build/obj/testmbox.o (symbol from plugin)
                                                  build/obj/testsem.o (symbol from plugin)
                                                  build/obj/test.o (symbol from plugin)
                                                  build/obj/serial_lld.o (symbol from plugin)
                                                  build/obj/serial.o (symbol from plugin)
                                                  build/obj/hal_buffers.o (symbol from plugin)
                                                  build/obj/chmempools.o (symbol from plugin)
                                                  build/obj/chmemcore.o (symbol from plugin)
                                                  build/obj/chqueues.o (symbol from plugin)
                                                  build/obj/chmboxes.o (symbol from plugin)
                                                  build/obj/chmsg.o (symbol from plugin)
                                                  build/obj/chevents.o (symbol from plugin)
                                                  build/obj/chcond.o (symbol from plugin)
                                                  build/obj/chsem.o (symbol from plugin)
                                                  build/obj/chthreads.o (symbol from plugin)
                                                  build/obj/chschd.o (symbol from plugin)
                                                  build/obj/chvt.o (symbol from plugin)
                                                  build/obj/chsys.o (symbol from plugin)
chDbgCheckClassS                                  C:\Users\Ciccio\AppData\Local\Temp\ccXVDL4Z.ltrans11.ltrans.o
                                                  build/obj/chdebug.o (symbol from plugin)
                                                  C:\Users\Ciccio\AppData\Local\Temp\ccXVDL4Z.ltrans10.ltrans.o
                                                  C:\Users\Ciccio\AppData\Local\Temp\ccXVDL4Z.ltrans9.ltrans.o
                                                  C:\Users\Ciccio\AppData\Local\Temp\ccXVDL4Z.ltrans8.ltrans.o
                                                  build/obj/hal_buffers.o (symbol from plugin)
                                                  build/obj/chmboxes.o (symbol from plugin)
                                                  build/obj/chmsg.o (symbol from plugin)
                                                  build/obj/chcond.o (symbol from plugin)
                                                  build/obj/chmtx.o (symbol from plugin)
                                                  build/obj/chsem.o (symbol from plugin)
                                                  build/obj/chthreads.o (symbol from plugin)
                                                  build/obj/chschd.o (symbol from plugin)
chEvtAddEvents                                    C:\Users\Ciccio\AppData\Local\Temp\ccXVDL4Z.ltrans9.ltrans.o
                                                  build/obj/chevents.o (symbol from plugin)
                                                  C:\Users\Ciccio\AppData\Local\Temp\ccXVDL4Z.ltrans3.ltrans.o
                                                  build/obj/testevt.o (symbol from plugin)
chEvtBroadcastFlags                               C:\Users\Ciccio\AppData\Local\Temp\ccXVDL4Z.ltrans9.ltrans.o
                                                  build/obj/chevents.o (symbol from plugin)
                                                  C:\Users\Ciccio\AppData\Local\Temp\ccXVDL4Z.ltrans3.ltrans.o
                                                  build/obj/testevt.o (symbol from plugin)
chEvtBroadcastFlagsI                              C:\Users\Ciccio\AppData\Local\Temp\ccXVDL4Z.ltrans9.ltrans.o
                                                  build/obj/chevents.o (symbol from plugin)
                                                  C:\Users\Ciccio\AppData\Local\Temp\ccXVDL4Z.ltrans7.ltrans.o
                                                  C:\Users\Ciccio\AppData\Local\Temp\ccXVDL4Z.ltrans6.ltrans.o
                                                  build/obj/serial_lld.o (symbol from plugin)
                                                  build/obj/serial.o (symbol from plugin)
chEvtDispatch                                     C:\Users\Ciccio\AppData\Local\Temp\ccXVDL4Z.ltrans9.ltrans.o
                                                  build/obj/chevents.o (symbol from plugin)
                                                  C:\Users\Ciccio\AppData\Local\Temp\ccXVDL4Z.ltrans3.ltrans.o
                                                  build/obj/testevt.o (symbol from plugin)
chEvtGetAndClearEvents                            C:\Users\Ciccio\AppData\Local\Temp\ccXVDL4Z.ltrans9.ltrans.o
                                                  build/obj/chevents.o (symbol from plugin)
                                                  C:\Users\Ciccio\AppData\Local\Temp\ccXVDL4Z.ltrans3.ltrans.o
                                                  C:\Users\Ciccio\AppData\Local\Temp\ccXVDL4Z.ltrans2.ltrans.o
                                                  build/obj/testevt.o (symbol from plugin)
chEvtGetAndClearFlags                             build/obj/chevents.o (symbol from plugin)
chEvtGetAndClearFlagsI                            build/obj/chevents.o (symbol from plugin)
chEvtRegisterMaskWithFlags                        C:\Users\Ciccio\AppData\Local\Temp\ccXVDL4Z.ltrans9.ltrans.o
                                                  build/obj/chevents.o (symbol from plugin)
                                                  C:\Users\Ciccio\AppData\Local\Temp\ccXVDL4Z.ltrans3.ltrans.o
                                                  build/obj/testevt.o (symbol from plugin)
chEvtSignal                                       C:\Users\Ciccio\AppData\Local\Temp\ccXVDL4Z.ltrans9.ltrans.o
                                                  build/obj/chevents.o (symbol from plugin)
                                                  C:\Users\Ciccio\AppData\Local\Temp\ccXVDL4Z.ltrans3.ltrans.o
                                                  build/obj/testevt.o (symbol from plugin)
chEvtSignalI                                      build/obj/chevents.o (symbol from plugin)
chEvtUnregister                                   C:\Users\Ciccio\AppData\Local\Temp\ccXVDL4Z.ltrans9.ltrans.o
                                                  build/obj/chevents.o (symbol from plugin)
                                                  C:\Users\Ciccio\AppData\Local\Temp\ccXVDL4Z.ltrans3.ltrans.o
                                                  build/obj/testevt.o (symbol from plugin)
chEvtWaitAll                                      C:\Users\Ciccio\AppData\Local\Temp\ccXVDL4Z.ltrans9.ltrans.o
                                                  build/obj/chevents.o (symbol from plugin)
                                                  C:\Users\Ciccio\AppData\Local\Temp\ccXVDL4Z.ltrans3.ltrans.o
                                                  build/obj/testevt.o (symbol from plugin)
chEvtWaitAllTimeout                               C:\Users\Ciccio\AppData\Local\Temp\ccXVDL4Z.ltrans9.ltrans.o
                                                  build/obj/chevents.o (symbol from plugin)
                                                  C:\Users\Ciccio\AppData\Local\Temp\ccXVDL4Z.ltrans2.ltrans.o
                                                  build/obj/testevt.o (symbol from plugin)
chEvtWaitAny                                      C:\Users\Ciccio\AppData\Local\Temp\ccXVDL4Z.ltrans9.ltrans.o
                                                  build/obj/chevents.o (symbol from plugin)
                                                  C:\Users\Ciccio\AppData\Local\Temp\ccXVDL4Z.ltrans3.ltrans.o
                                                  build/obj/testevt.o (symbol from plugin)
chEvtWaitAnyTimeout                               C:\Users\Ciccio\AppData\Local\Temp\ccXVDL4Z.ltrans9.ltrans.o
                                                  build/obj/chevents.o (symbol from plugin)
                                                  C:\Users\Ciccio\AppData\Local\Temp\ccXVDL4Z.ltrans2.ltrans.o
                                                  build/obj/testevt.o (symbol from plugin)
chEvtWaitOne                                      C:\Users\Ciccio\AppData\Local\Temp\ccXVDL4Z.ltrans9.ltrans.o
                                                  build/obj/chevents.o (symbol from plugin)
                                                  C:\Users\Ciccio\AppData\Local\Temp\ccXVDL4Z.ltrans3.ltrans.o
                                                  build/obj/testevt.o (symbol from plugin)
chEvtWaitOneTimeout                               C:\Users\Ciccio\AppData\Local\Temp\ccXVDL4Z.ltrans9.ltrans.o
                                                  build/obj/chevents.o (symbol from plugin)
                                                  C:\Users\Ciccio\AppData\Local\Temp\ccXVDL4Z.ltrans2.ltrans.o
                                                  build/obj/testevt.o (symbol from plugin)
chHeapAlloc                                       C:\Users\Ciccio\AppData\Local\Temp\ccXVDL4Z.ltrans8.ltrans.o
                                                  build/obj/chheap.o (symbol from plugin)
                                                  C:\Users\Ciccio\AppData\Local\Temp\ccXVDL4Z.ltrans10.ltrans.o
                                                  C:\Users\Ciccio\AppData\Local\Temp\ccXVDL4Z.ltrans2.ltrans.o
                                                  build/obj/testdyn.o (symbol from plugin)
                                                  build/obj/testheap.o (symbol from plugin)
                                                  build/obj/chdynamic.o (symbol from plugin)
chHeapFree                                        C:\Users\Ciccio\AppData\Local\Temp\ccXVDL4Z.ltrans8.ltrans.o
                                                  build/obj/chheap.o (symbol from plugin)
                                                  C:\Users\Ciccio\AppData\Local\Temp\ccXVDL4Z.ltrans10.ltrans.o
                                                  C:\Users\Ciccio\AppData\Local\Temp\ccXVDL4Z.ltrans2.ltrans.o
                                                  build/obj/testdyn.o (symbol from plugin)
                                                  build/obj/testheap.o (symbol from plugin)
                                                  build/obj/chdynamic.o (symbol from plugin)
chHeapObjectInit                                  C:\Users\Ciccio\AppData\Local\Temp\ccXVDL4Z.ltrans8.ltrans.o
                                                  build/obj/chheap.o (symbol from plugin)
                                                  C:\Users\Ciccio\AppData\Local\Temp\ccXVDL4Z.ltrans2.ltrans.o
                                                  build/obj/testdyn.o (symbol from plugin)
                                                  build/obj/testheap.o (symbol from plugin)
chHeapStatus                                      C:\Users\Ciccio\AppData\Local\Temp\ccXVDL4Z.ltrans8.ltrans.o
                                                  build/obj/chheap.o (symbol from plugin)
                                                  C:\Users\Ciccio\AppData\Local\Temp\ccXVDL4Z.ltrans2.ltrans.o
                                                  build/obj/testdyn.o (symbol from plugin)
                                                  build/obj/testheap.o (symbol from plugin)
chIQGetTimeout                                    C:\Users\Ciccio\AppData\Local\Temp\ccXVDL4Z.ltrans9.ltrans.o
                                                  build/obj/chqueues.o (symbol from plugin)
                                                  C:\Users\Ciccio\AppData\Local\Temp\ccXVDL4Z.ltrans7.ltrans.o
                                                  C:\Users\Ciccio\AppData\Local\Temp\ccXVDL4Z.ltrans2.ltrans.o
                                                  C:\Users\Ciccio\AppData\Local\Temp\ccXVDL4Z.ltrans1.ltrans.o
                                                  C:\Users\Ciccio\AppData\Local\Temp\ccXVDL4Z.ltrans0.ltrans.o
                                                  build/obj/main.o (symbol from plugin)
                                                  build/obj/testbmk.o (symbol from plugin)
                                                  build/obj/testqueues.o (symbol from plugin)
                                                  build/obj/serial.o (symbol from plugin)
chIQObjectInit                                    C:\Users\Ciccio\AppData\Local\Temp\ccXVDL4Z.ltrans9.ltrans.o
                                                  build/obj/chqueues.o (symbol from plugin)
                                                  C:\Users\Ciccio\AppData\Local\Temp\ccXVDL4Z.ltrans7.ltrans.o
                                                  C:\Users\Ciccio\AppData\Local\Temp\ccXVDL4Z.ltrans2.ltrans.o
                                                  C:\Users\Ciccio\AppData\Local\Temp\ccXVDL4Z.ltrans1.ltrans.o
                                                  build/obj/testbmk.o (symbol from plugin)
                                                  build/obj/testqueues.o (symbol from plugin)
                                                  build/obj/serial.o (symbol from plugin)
chIQPutI                                          C:\Users\Ciccio\AppData\Local\Temp\ccXVDL4Z.ltrans9.ltrans.o
                                                  build/obj/chqueues.o (symbol from plugin)
                                                  C:\Users\Ciccio\AppData\Local\Temp\ccXVDL4Z.ltrans7.ltrans.o
                                                  C:\Users\Ciccio\AppData\Local\Temp\ccXVDL4Z.ltrans2.ltrans.o
                                                  C:\Users\Ciccio\AppData\Local\Temp\ccXVDL4Z.ltrans1.ltrans.o
                                                  build/obj/testbmk.o (symbol from plugin)
                                                  build/obj/testqueues.o (symbol from plugin)
                                                  build/obj/serial.o (symbol from plugin)
chIQReadTimeout                                   C:\Users\Ciccio\AppData\Local\Temp\ccXVDL4Z.ltrans9.ltrans.o
                                                  build/obj/chqueues.o (symbol from plugin)
                                                  C:\Users\Ciccio\AppData\Local\Temp\ccXVDL4Z.ltrans7.ltrans.o
                                                  C:\Users\Ciccio\AppData\Local\Temp\ccXVDL4Z.ltrans2.ltrans.o
                                                  build/obj/testqueues.o (symbol from plugin)
                                                  build/obj/serial.o (symbol from plugin)
chIQResetI                                        C:\Users\Ciccio\AppData\Local\Temp\ccXVDL4Z.ltrans9.ltrans.o
                                                  build/obj/chqueues.o (symbol from plugin)
                                                  C:\Users\Ciccio\AppData\Local\Temp\ccXVDL4Z.ltrans7.ltrans.o
                                                  C:\Users\Ciccio\AppData\Local\Temp\ccXVDL4Z.ltrans2.ltrans.o
                                                  build/obj/testqueues.o (symbol from plugin)
                                                  build/obj/serial.o (symbol from plugin)
chMBFetch                                         C:\Users\Ciccio\AppData\Local\Temp\ccXVDL4Z.ltrans9.ltrans.o
                                                  build/obj/chmboxes.o (symbol from plugin)
                                                  C:\Users\Ciccio\AppData\Local\Temp\ccXVDL4Z.ltrans3.ltrans.o
                                                  build/obj/testmbox.o (symbol from plugin)
chMBFetchI                                        C:\Users\Ciccio\AppData\Local\Temp\ccXVDL4Z.ltrans9.ltrans.o
                                                  build/obj/chmboxes.o (symbol from plugin)
                                                  C:\Users\Ciccio\AppData\Local\Temp\ccXVDL4Z.ltrans3.ltrans.o
                                                  build/obj/testmbox.o (symbol from plugin)
chMBFetchS                                        build/obj/chmboxes.o (symbol from plugin)
chMBGetFreeCountI.lto_priv.181                    C:\Users\Ciccio\AppData\Local\Temp\ccXVDL4Z.ltrans4.ltrans.o
                                                  C:\Users\Ciccio\AppData\Local\Temp\ccXVDL4Z.ltrans3.ltrans.o
chMBGetUsedCountI.lto_priv.180                    C:\Users\Ciccio\AppData\Local\Temp\ccXVDL4Z.ltrans4.ltrans.o
                                                  C:\Users\Ciccio\AppData\Local\Temp\ccXVDL4Z.ltrans3.ltrans.o
chMBObjectInit                                    C:\Users\Ciccio\AppData\Local\Temp\ccXVDL4Z.ltrans9.ltrans.o
                                                  build/obj/chmboxes.o (symbol from plugin)
                                                  C:\Users\Ciccio\AppData\Local\Temp\ccXVDL4Z.ltrans3.ltrans.o
                                                  build/obj/testmbox.o (symbol from plugin)
chMBPost                                          C:\Users\Ciccio\AppData\Local\Temp\ccXVDL4Z.ltrans9.ltrans.o
                                                  build/obj/chmboxes.o (symbol from plugin)
                                                  C:\Users\Ciccio\AppData\Local\Temp\ccXVDL4Z.ltrans3.ltrans.o
                                                  build/obj/testmbox.o (symbol from plugin)
chMBPostAhead                                     C:\Users\Ciccio\AppData\Local\Temp\ccXVDL4Z.ltrans9.ltrans.o
                                                  build/obj/chmboxes.o (symbol from plugin)
                                                  C:\Users\Ciccio\AppData\Local\Temp\ccXVDL4Z.ltrans3.ltrans.o
                                                  build/obj/testmbox.o (symbol from plugin)
chMBPostAheadI                                    C:\Users\Ciccio\AppData\Local\Temp\ccXVDL4Z.ltrans9.ltrans.o
                                                  build/obj/chmboxes.o (symbol from plugin)
                                                  C:\Users\Ciccio\AppData\Local\Temp\ccXVDL4Z.ltrans3.ltrans.o
                                                  build/obj/testmbox.o (symbol from plugin)
chMBPostAheadS                                    build/obj/chmboxes.o (symbol from plugin)
chMBPostI                                         C:\Users\Ciccio\AppData\Local\Temp\ccXVDL4Z.ltrans9.ltrans.o
                                                  build/obj/chmboxes.o (symbol from plugin)
                                                  C:\Users\Ciccio\AppData\Local\Temp\ccXVDL4Z.ltrans3.ltrans.o
                                                  build/obj/testmbox.o (symbol from plugin)
chMBPostS                                         build/obj/chmboxes.o (symbol from plugin)
chMBReset                                         C:\Users\Ciccio\AppData\Local\Temp\ccXVDL4Z.ltrans9.ltrans.o
                                                  build/obj/chmboxes.o (symbol from plugin)
                                                  C:\Users\Ciccio\AppData\Local\Temp\ccXVDL4Z.ltrans3.ltrans.o
                                                  build/obj/testmbox.o (symbol from plugin)
chMBResetI                                        build/obj/chmboxes.o (symbol from plugin)
chMsgRelease                                      C:\Users\Ciccio\AppData\Local\Temp\ccXVDL4Z.ltrans9.ltrans.o
                                                  build/obj/chmsg.o (symbol from plugin)
                                                  C:\Users\Ciccio\AppData\Local\Temp\ccXVDL4Z.ltrans4.ltrans.o
                                                  C:\Users\Ciccio\AppData\Local\Temp\ccXVDL4Z.ltrans1.ltrans.o
                                                  build/obj/testbmk.o (symbol from plugin)
                                                  build/obj/testmsg.o (symbol from plugin)
chMsgSend                                         C:\Users\Ciccio\AppData\Local\Temp\ccXVDL4Z.ltrans9.ltrans.o
                                                  build/obj/chmsg.o (symbol from plugin)
                                                  C:\Users\Ciccio\AppData\Local\Temp\ccXVDL4Z.ltrans4.ltrans.o
                                                  C:\Users\Ciccio\AppData\Local\Temp\ccXVDL4Z.ltrans1.ltrans.o
                                                  build/obj/testbmk.o (symbol from plugin)
                                                  build/obj/testmsg.o (symbol from plugin)
chMsgWait                                         C:\Users\Ciccio\AppData\Local\Temp\ccXVDL4Z.ltrans9.ltrans.o
                                                  build/obj/chmsg.o (symbol from plugin)
                                                  C:\Users\Ciccio\AppData\Local\Temp\ccXVDL4Z.ltrans4.ltrans.o
                                                  C:\Users\Ciccio\AppData\Local\Temp\ccXVDL4Z.ltrans1.ltrans.o
                                                  build/obj/testbmk.o (symbol from plugin)
                                                  build/obj/testmsg.o (symbol from plugin)
chMtxGetNextMutexS.lto_priv.370                   C:\Users\Ciccio\AppData\Local\Temp\ccXVDL4Z.ltrans10.ltrans.o
                                                  C:\Users\Ciccio\AppData\Local\Temp\ccXVDL4Z.ltrans9.ltrans.o
chMtxLock                                         C:\Users\Ciccio\AppData\Local\Temp\ccXVDL4Z.ltrans10.ltrans.o
                                                  build/obj/chmtx.o (symbol from plugin)
                                                  C:\Users\Ciccio\AppData\Local\Temp\ccXVDL4Z.ltrans8.ltrans.o
                                                  C:\Users\Ciccio\AppData\Local\Temp\ccXVDL4Z.ltrans7.ltrans.o
                                                  C:\Users\Ciccio\AppData\Local\Temp\ccXVDL4Z.ltrans4.ltrans.o
                                                  C:\Users\Ciccio\AppData\Local\Temp\ccXVDL4Z.ltrans1.ltrans.o
                                                  build/obj/testbmk.o (symbol from plugin)
                                                  build/obj/testmtx.o (symbol from plugin)
                                                  build/obj/i2c.o (symbol from plugin)
                                                  build/obj/chheap.o (symbol from plugin)
chMtxLockS                                        C:\Users\Ciccio\AppData\Local\Temp\ccXVDL4Z.ltrans10.ltrans.o
                                                  build/obj/chmtx.o (symbol from plugin)
                                                  C:\Users\Ciccio\AppData\Local\Temp\ccXVDL4Z.ltrans9.ltrans.o
                                                  build/obj/chcond.o (symbol from plugin)
chMtxObjectInit                                   C:\Users\Ciccio\AppData\Local\Temp\ccXVDL4Z.ltrans10.ltrans.o
                                                  build/obj/chmtx.o (symbol from plugin)
                                                  C:\Users\Ciccio\AppData\Local\Temp\ccXVDL4Z.ltrans8.ltrans.o
                                                  C:\Users\Ciccio\AppData\Local\Temp\ccXVDL4Z.ltrans7.ltrans.o
                                                  C:\Users\Ciccio\AppData\Local\Temp\ccXVDL4Z.ltrans4.ltrans.o
                                                  C:\Users\Ciccio\AppData\Local\Temp\ccXVDL4Z.ltrans1.ltrans.o
                                                  build/obj/testbmk.o (symbol from plugin)
                                                  build/obj/testmtx.o (symbol from plugin)
                                                  build/obj/i2c.o (symbol from plugin)
                                                  build/obj/chheap.o (symbol from plugin)
chMtxTryLock                                      C:\Users\Ciccio\AppData\Local\Temp\ccXVDL4Z.ltrans10.ltrans.o
                                                  build/obj/chmtx.o (symbol from plugin)
                                                  C:\Users\Ciccio\AppData\Local\Temp\ccXVDL4Z.ltrans4.ltrans.o
                                                  build/obj/testmtx.o (symbol from plugin)
chMtxTryLockS                                     build/obj/chmtx.o (symbol from plugin)
chMtxUnlock                                       C:\Users\Ciccio\AppData\Local\Temp\ccXVDL4Z.ltrans10.ltrans.o
                                                  build/obj/chmtx.o (symbol from plugin)
                                                  C:\Users\Ciccio\AppData\Local\Temp\ccXVDL4Z.ltrans8.ltrans.o
                                                  C:\Users\Ciccio\AppData\Local\Temp\ccXVDL4Z.ltrans7.ltrans.o
                                                  C:\Users\Ciccio\AppData\Local\Temp\ccXVDL4Z.ltrans4.ltrans.o
                                                  C:\Users\Ciccio\AppData\Local\Temp\ccXVDL4Z.ltrans1.ltrans.o
                                                  build/obj/testbmk.o (symbol from plugin)
                                                  build/obj/testmtx.o (symbol from plugin)
                                                  build/obj/i2c.o (symbol from plugin)
                                                  build/obj/chheap.o (symbol from plugin)
chMtxUnlockAll                                    C:\Users\Ciccio\AppData\Local\Temp\ccXVDL4Z.ltrans10.ltrans.o
                                                  build/obj/chmtx.o (symbol from plugin)
                                                  C:\Users\Ciccio\AppData\Local\Temp\ccXVDL4Z.ltrans4.ltrans.o
                                                  build/obj/testmtx.o (symbol from plugin)
chMtxUnlockS                                      C:\Users\Ciccio\AppData\Local\Temp\ccXVDL4Z.ltrans10.ltrans.o
                                                  build/obj/chmtx.o (symbol from plugin)
                                                  C:\Users\Ciccio\AppData\Local\Temp\ccXVDL4Z.ltrans9.ltrans.o
                                                  C:\Users\Ciccio\AppData\Local\Temp\ccXVDL4Z.ltrans4.ltrans.o
                                                  build/obj/testmtx.o (symbol from plugin)
                                                  build/obj/chcond.o (symbol from plugin)
chOQGetFullI.lto_priv.164                         C:\Users\Ciccio\AppData\Local\Temp\ccXVDL4Z.ltrans2.ltrans.o
                                                  C:\Users\Ciccio\AppData\Local\Temp\ccXVDL4Z.ltrans1.ltrans.o
chOQGetI                                          C:\Users\Ciccio\AppData\Local\Temp\ccXVDL4Z.ltrans8.ltrans.o
                                                  build/obj/chqueues.o (symbol from plugin)
                                                  C:\Users\Ciccio\AppData\Local\Temp\ccXVDL4Z.ltrans7.ltrans.o
                                                  C:\Users\Ciccio\AppData\Local\Temp\ccXVDL4Z.ltrans5.ltrans.o
                                                  C:\Users\Ciccio\AppData\Local\Temp\ccXVDL4Z.ltrans1.ltrans.o
                                                  build/obj/testqueues.o (symbol from plugin)
                                                  build/obj/serial_lld.o (symbol from plugin)
                                                  build/obj/serial.o (symbol from plugin)
chOQIsEmptyI.lto_priv.165                         C:\Users\Ciccio\AppData\Local\Temp\ccXVDL4Z.ltrans2.ltrans.o
                                                  C:\Users\Ciccio\AppData\Local\Temp\ccXVDL4Z.ltrans1.ltrans.o
chOQIsEmptyI.lto_priv.245                         C:\Users\Ciccio\AppData\Local\Temp\ccXVDL4Z.ltrans6.ltrans.o
                                                  C:\Users\Ciccio\AppData\Local\Temp\ccXVDL4Z.ltrans5.ltrans.o
chOQIsEmptyI.lto_priv.339                         C:\Users\Ciccio\AppData\Local\Temp\ccXVDL4Z.ltrans9.ltrans.o
                                                  C:\Users\Ciccio\AppData\Local\Temp\ccXVDL4Z.ltrans8.ltrans.o
chOQIsFullI.lto_priv.163                          C:\Users\Ciccio\AppData\Local\Temp\ccXVDL4Z.ltrans2.ltrans.o
                                                  C:\Users\Ciccio\AppData\Local\Temp\ccXVDL4Z.ltrans1.ltrans.o
chOQIsFullI.lto_priv.338                          C:\Users\Ciccio\AppData\Local\Temp\ccXVDL4Z.ltrans9.ltrans.o
                                                  C:\Users\Ciccio\AppData\Local\Temp\ccXVDL4Z.ltrans8.ltrans.o
chOQObjectInit                                    C:\Users\Ciccio\AppData\Local\Temp\ccXVDL4Z.ltrans9.ltrans.o
                                                  build/obj/chqueues.o (symbol from plugin)
                                                  C:\Users\Ciccio\AppData\Local\Temp\ccXVDL4Z.ltrans7.ltrans.o
                                                  C:\Users\Ciccio\AppData\Local\Temp\ccXVDL4Z.ltrans1.ltrans.o
                                                  build/obj/testqueues.o (symbol from plugin)
                                                  build/obj/serial.o (symbol from plugin)
chOQPut.lto_priv.166                              C:\Users\Ciccio\AppData\Local\Temp\ccXVDL4Z.ltrans2.ltrans.o
                                                  C:\Users\Ciccio\AppData\Local\Temp\ccXVDL4Z.ltrans1.ltrans.o
chOQPutTimeout                                    C:\Users\Ciccio\AppData\Local\Temp\ccXVDL4Z.ltrans8.ltrans.o
                                                  build/obj/chqueues.o (symbol from plugin)
                                                  C:\Users\Ciccio\AppData\Local\Temp\ccXVDL4Z.ltrans7.ltrans.o
                                                  C:\Users\Ciccio\AppData\Local\Temp\ccXVDL4Z.ltrans2.ltrans.o
                                                  C:\Users\Ciccio\AppData\Local\Temp\ccXVDL4Z.ltrans1.ltrans.o
                                                  build/obj/testqueues.o (symbol from plugin)
                                                  build/obj/serial.o (symbol from plugin)
chOQResetI                                        C:\Users\Ciccio\AppData\Local\Temp\ccXVDL4Z.ltrans8.ltrans.o
                                                  build/obj/chqueues.o (symbol from plugin)
                                                  C:\Users\Ciccio\AppData\Local\Temp\ccXVDL4Z.ltrans7.ltrans.o
                                                  C:\Users\Ciccio\AppData\Local\Temp\ccXVDL4Z.ltrans1.ltrans.o
                                                  build/obj/testqueues.o (symbol from plugin)
                                                  build/obj/serial.o (symbol from plugin)
chOQWriteTimeout                                  C:\Users\Ciccio\AppData\Local\Temp\ccXVDL4Z.ltrans8.ltrans.o
                                                  build/obj/chqueues.o (symbol from plugin)
                                                  C:\Users\Ciccio\AppData\Local\Temp\ccXVDL4Z.ltrans7.ltrans.o
                                                  C:\Users\Ciccio\AppData\Local\Temp\ccXVDL4Z.ltrans1.ltrans.o
                                                  build/obj/testqueues.o (symbol from plugin)
                                                  build/obj/serial.o (symbol from plugin)
chPoolAlloc                                       C:\Users\Ciccio\AppData\Local\Temp\ccXVDL4Z.ltrans8.ltrans.o
                                                  build/obj/chmempools.o (symbol from plugin)
                                                  C:\Users\Ciccio\AppData\Local\Temp\ccXVDL4Z.ltrans10.ltrans.o
                                                  C:\Users\Ciccio\AppData\Local\Temp\ccXVDL4Z.ltrans2.ltrans.o
                                                  build/obj/testdyn.o (symbol from plugin)
                                                  build/obj/testpools.o (symbol from plugin)
                                                  build/obj/chdynamic.o (symbol from plugin)
chPoolAllocI                                      build/obj/chmempools.o (symbol from plugin)
chPoolFree                                        C:\Users\Ciccio\AppData\Local\Temp\ccXVDL4Z.ltrans8.ltrans.o
                                                  build/obj/chmempools.o (symbol from plugin)
                                                  C:\Users\Ciccio\AppData\Local\Temp\ccXVDL4Z.ltrans10.ltrans.o
                                                  C:\Users\Ciccio\AppData\Local\Temp\ccXVDL4Z.ltrans2.ltrans.o
                                                  build/obj/testdyn.o (symbol from plugin)
                                                  build/obj/testpools.o (symbol from plugin)
                                                  build/obj/chdynamic.o (symbol from plugin)
chPoolFreeI                                       build/obj/chmempools.o (symbol from plugin)
chPoolLoadArray                                   C:\Users\Ciccio\AppData\Local\Temp\ccXVDL4Z.ltrans8.ltrans.o
                                                  build/obj/chmempools.o (symbol from plugin)
                                                  C:\Users\Ciccio\AppData\Local\Temp\ccXVDL4Z.ltrans2.ltrans.o
                                                  build/obj/testpools.o (symbol from plugin)
chPoolObjectInit                                  C:\Users\Ciccio\AppData\Local\Temp\ccXVDL4Z.ltrans8.ltrans.o
                                                  build/obj/chmempools.o (symbol from plugin)
                                                  C:\Users\Ciccio\AppData\Local\Temp\ccXVDL4Z.ltrans2.ltrans.o
                                                  build/obj/testdyn.o (symbol from plugin)
                                                  build/obj/testpools.o (symbol from plugin)
chRegFirstThread                                  C:\Users\Ciccio\AppData\Local\Temp\ccXVDL4Z.ltrans10.ltrans.o
                                                  build/obj/chregistry.o (symbol from plugin)
                                                  C:\Users\Ciccio\AppData\Local\Temp\ccXVDL4Z.ltrans2.ltrans.o
                                                  build/obj/testdyn.o (symbol from plugin)
chRegNextThread                                   C:\Users\Ciccio\AppData\Local\Temp\ccXVDL4Z.ltrans10.ltrans.o
                                                  build/obj/chregistry.o (symbol from plugin)
                                                  C:\Users\Ciccio\AppData\Local\Temp\ccXVDL4Z.ltrans2.ltrans.o
                                                  build/obj/testdyn.o (symbol from plugin)
chSchDoReschedule                                 C:\Users\Ciccio\AppData\Local\Temp\ccXVDL4Z.ltrans11.ltrans.o
                                                  build/obj/chschd.o (symbol from plugin)
                                                  build/obj/chcoreasm_v7m.o
chSchDoRescheduleAhead                            build/obj/chschd.o (symbol from plugin)
chSchDoRescheduleBehind                           build/obj/chschd.o (symbol from plugin)
                                                  build/obj/chthreads.o (symbol from plugin)
chSchGoSleepS                                     C:\Users\Ciccio\AppData\Local\Temp\ccXVDL4Z.ltrans11.ltrans.o
                                                  build/obj/chschd.o (symbol from plugin)
                                                  C:\Users\Ciccio\AppData\Local\Temp\ccXVDL4Z.ltrans10.ltrans.o
                                                  C:\Users\Ciccio\AppData\Local\Temp\ccXVDL4Z.ltrans9.ltrans.o
                                                  C:\Users\Ciccio\AppData\Local\Temp\ccXVDL4Z.ltrans1.ltrans.o
                                                  build/obj/testbmk.o (symbol from plugin)
                                                  build/obj/chmsg.o (symbol from plugin)
                                                  build/obj/chevents.o (symbol from plugin)
                                                  build/obj/chcond.o (symbol from plugin)
                                                  build/obj/chmtx.o (symbol from plugin)
                                                  build/obj/chsem.o (symbol from plugin)
                                                  build/obj/chthreads.o (symbol from plugin)
chSchGoSleepTimeoutS                              C:\Users\Ciccio\AppData\Local\Temp\ccXVDL4Z.ltrans11.ltrans.o
                                                  build/obj/chschd.o (symbol from plugin)
                                                  C:\Users\Ciccio\AppData\Local\Temp\ccXVDL4Z.ltrans10.ltrans.o
                                                  C:\Users\Ciccio\AppData\Local\Temp\ccXVDL4Z.ltrans9.ltrans.o
                                                  build/obj/chevents.o (symbol from plugin)
                                                  build/obj/chcond.o (symbol from plugin)
                                                  build/obj/chsem.o (symbol from plugin)
                                                  build/obj/chthreads.o (symbol from plugin)
chSchIsPreemptionRequired                         C:\Users\Ciccio\AppData\Local\Temp\ccXVDL4Z.ltrans11.ltrans.o
                                                  build/obj/chschd.o (symbol from plugin)
                                                  C:\Users\Ciccio\AppData\Local\Temp\ccXVDL4Z.ltrans8.ltrans.o
                                                  build/obj/chcore_v7m.o (symbol from plugin)
chSchReadyI                                       C:\Users\Ciccio\AppData\Local\Temp\ccXVDL4Z.ltrans11.ltrans.o
                                                  build/obj/chschd.o (symbol from plugin)
                                                  C:\Users\Ciccio\AppData\Local\Temp\ccXVDL4Z.ltrans10.ltrans.o
                                                  C:\Users\Ciccio\AppData\Local\Temp\ccXVDL4Z.ltrans9.ltrans.o
                                                  build/obj/chmsg.o (symbol from plugin)
                                                  build/obj/chevents.o (symbol from plugin)
                                                  build/obj/chcond.o (symbol from plugin)
                                                  build/obj/chmtx.o (symbol from plugin)
                                                  build/obj/chsem.o (symbol from plugin)
                                                  build/obj/chthreads.o (symbol from plugin)
chSchRescheduleS                                  C:\Users\Ciccio\AppData\Local\Temp\ccXVDL4Z.ltrans11.ltrans.o
                                                  build/obj/chschd.o (symbol from plugin)
                                                  C:\Users\Ciccio\AppData\Local\Temp\ccXVDL4Z.ltrans10.ltrans.o
                                                  C:\Users\Ciccio\AppData\Local\Temp\ccXVDL4Z.ltrans9.ltrans.o
                                                  C:\Users\Ciccio\AppData\Local\Temp\ccXVDL4Z.ltrans7.ltrans.o
                                                  C:\Users\Ciccio\AppData\Local\Temp\ccXVDL4Z.ltrans5.ltrans.o
                                                  C:\Users\Ciccio\AppData\Local\Temp\ccXVDL4Z.ltrans4.ltrans.o
                                                  build/obj/testmtx.o (symbol from plugin)
                                                  build/obj/testsem.o (symbol from plugin)
                                                  build/obj/serial.o (symbol from plugin)
                                                  build/obj/chmboxes.o (symbol from plugin)
                                                  build/obj/chevents.o (symbol from plugin)
                                                  build/obj/chcond.o (symbol from plugin)
                                                  build/obj/chmtx.o (symbol from plugin)
                                                  build/obj/chsem.o (symbol from plugin)
                                                  build/obj/chthreads.o (symbol from plugin)
                                                  build/obj/chsys.o (symbol from plugin)
chSchWakeupS                                      C:\Users\Ciccio\AppData\Local\Temp\ccXVDL4Z.ltrans11.ltrans.o
                                                  build/obj/chschd.o (symbol from plugin)
                                                  C:\Users\Ciccio\AppData\Local\Temp\ccXVDL4Z.ltrans10.ltrans.o
                                                  C:\Users\Ciccio\AppData\Local\Temp\ccXVDL4Z.ltrans9.ltrans.o
                                                  C:\Users\Ciccio\AppData\Local\Temp\ccXVDL4Z.ltrans1.ltrans.o
                                                  build/obj/testbmk.o (symbol from plugin)
                                                  build/obj/chmsg.o (symbol from plugin)
                                                  build/obj/chcond.o (symbol from plugin)
                                                  build/obj/chsem.o (symbol from plugin)
                                                  build/obj/chdynamic.o (symbol from plugin)
                                                  build/obj/chthreads.o (symbol from plugin)
chSemAddCounterI                                  C:\Users\Ciccio\AppData\Local\Temp\ccXVDL4Z.ltrans10.ltrans.o
                                                  build/obj/chsem.o (symbol from plugin)
                                                  C:\Users\Ciccio\AppData\Local\Temp\ccXVDL4Z.ltrans4.ltrans.o
                                                  build/obj/testsem.o (symbol from plugin)
chSemGetCounterI.lto_priv.182                     C:\Users\Ciccio\AppData\Local\Temp\ccXVDL4Z.ltrans5.ltrans.o
                                                  C:\Users\Ciccio\AppData\Local\Temp\ccXVDL4Z.ltrans4.ltrans.o
chSemObjectInit                                   C:\Users\Ciccio\AppData\Local\Temp\ccXVDL4Z.ltrans10.ltrans.o
                                                  build/obj/chsem.o (symbol from plugin)
                                                  C:\Users\Ciccio\AppData\Local\Temp\ccXVDL4Z.ltrans9.ltrans.o
                                                  C:\Users\Ciccio\AppData\Local\Temp\ccXVDL4Z.ltrans5.ltrans.o
                                                  C:\Users\Ciccio\AppData\Local\Temp\ccXVDL4Z.ltrans4.ltrans.o
                                                  C:\Users\Ciccio\AppData\Local\Temp\ccXVDL4Z.ltrans1.ltrans.o
                                                  build/obj/testbmk.o (symbol from plugin)
                                                  build/obj/testsem.o (symbol from plugin)
                                                  build/obj/chmboxes.o (symbol from plugin)
chSemReset                                        C:\Users\Ciccio\AppData\Local\Temp\ccXVDL4Z.ltrans10.ltrans.o
                                                  build/obj/chsem.o (symbol from plugin)
                                                  C:\Users\Ciccio\AppData\Local\Temp\ccXVDL4Z.ltrans5.ltrans.o
                                                  C:\Users\Ciccio\AppData\Local\Temp\ccXVDL4Z.ltrans1.ltrans.o
                                                  build/obj/testbmk.o (symbol from plugin)
                                                  build/obj/testsem.o (symbol from plugin)
chSemResetI                                       C:\Users\Ciccio\AppData\Local\Temp\ccXVDL4Z.ltrans10.ltrans.o
                                                  build/obj/chsem.o (symbol from plugin)
                                                  C:\Users\Ciccio\AppData\Local\Temp\ccXVDL4Z.ltrans9.ltrans.o
                                                  build/obj/chmboxes.o (symbol from plugin)
chSemSignal                                       C:\Users\Ciccio\AppData\Local\Temp\ccXVDL4Z.ltrans10.ltrans.o
                                                  build/obj/chsem.o (symbol from plugin)
                                                  C:\Users\Ciccio\AppData\Local\Temp\ccXVDL4Z.ltrans4.ltrans.o
                                                  C:\Users\Ciccio\AppData\Local\Temp\ccXVDL4Z.ltrans1.ltrans.o
                                                  build/obj/testbmk.o (symbol from plugin)
                                                  build/obj/testsem.o (symbol from plugin)
chSemSignalI                                      C:\Users\Ciccio\AppData\Local\Temp\ccXVDL4Z.ltrans10.ltrans.o
                                                  build/obj/chsem.o (symbol from plugin)
                                                  C:\Users\Ciccio\AppData\Local\Temp\ccXVDL4Z.ltrans9.ltrans.o
                                                  C:\Users\Ciccio\AppData\Local\Temp\ccXVDL4Z.ltrans5.ltrans.o
                                                  C:\Users\Ciccio\AppData\Local\Temp\ccXVDL4Z.ltrans4.ltrans.o
                                                  build/obj/testsem.o (symbol from plugin)
                                                  build/obj/chmboxes.o (symbol from plugin)
chSemSignalWait                                   C:\Users\Ciccio\AppData\Local\Temp\ccXVDL4Z.ltrans10.ltrans.o
                                                  build/obj/chsem.o (symbol from plugin)
                                                  C:\Users\Ciccio\AppData\Local\Temp\ccXVDL4Z.ltrans4.ltrans.o
                                                  build/obj/testsem.o (symbol from plugin)
chSemWait                                         C:\Users\Ciccio\AppData\Local\Temp\ccXVDL4Z.ltrans10.ltrans.o
                                                  build/obj/chsem.o (symbol from plugin)
                                                  C:\Users\Ciccio\AppData\Local\Temp\ccXVDL4Z.ltrans5.ltrans.o
                                                  C:\Users\Ciccio\AppData\Local\Temp\ccXVDL4Z.ltrans4.ltrans.o
                                                  C:\Users\Ciccio\AppData\Local\Temp\ccXVDL4Z.ltrans1.ltrans.o
                                                  build/obj/testbmk.o (symbol from plugin)
                                                  build/obj/testsem.o (symbol from plugin)
chSemWaitS                                        build/obj/chsem.o (symbol from plugin)
chSemWaitTimeout                                  C:\Users\Ciccio\AppData\Local\Temp\ccXVDL4Z.ltrans10.ltrans.o
                                                  build/obj/chsem.o (symbol from plugin)
                                                  C:\Users\Ciccio\AppData\Local\Temp\ccXVDL4Z.ltrans4.ltrans.o
                                                  build/obj/testsem.o (symbol from plugin)
chSemWaitTimeoutS                                 C:\Users\Ciccio\AppData\Local\Temp\ccXVDL4Z.ltrans10.ltrans.o
                                                  build/obj/chsem.o (symbol from plugin)
                                                  C:\Users\Ciccio\AppData\Local\Temp\ccXVDL4Z.ltrans9.ltrans.o
                                                  build/obj/chmboxes.o (symbol from plugin)
chSysGetStatusAndLockX                            C:\Users\Ciccio\AppData\Local\Temp\ccXVDL4Z.ltrans11.ltrans.o
                                                  build/obj/chsys.o (symbol from plugin)
                                                  C:\Users\Ciccio\AppData\Local\Temp\ccXVDL4Z.ltrans1.ltrans.o
                                                  build/obj/testsys.o (symbol from plugin)
chSysHalt                                         C:\Users\Ciccio\AppData\Local\Temp\ccXVDL4Z.ltrans11.ltrans.o
                                                  build/obj/chsys.o (symbol from plugin)
                                                  C:\Users\Ciccio\AppData\Local\Temp\ccXVDL4Z.ltrans10.ltrans.o
                                                  C:\Users\Ciccio\AppData\Local\Temp\ccXVDL4Z.ltrans9.ltrans.o
                                                  C:\Users\Ciccio\AppData\Local\Temp\ccXVDL4Z.ltrans8.ltrans.o
                                                  C:\Users\Ciccio\AppData\Local\Temp\ccXVDL4Z.ltrans7.ltrans.o
                                                  C:\Users\Ciccio\AppData\Local\Temp\ccXVDL4Z.ltrans6.ltrans.o
                                                  C:\Users\Ciccio\AppData\Local\Temp\ccXVDL4Z.ltrans5.ltrans.o
                                                  C:\Users\Ciccio\AppData\Local\Temp\ccXVDL4Z.ltrans4.ltrans.o
                                                  C:\Users\Ciccio\AppData\Local\Temp\ccXVDL4Z.ltrans3.ltrans.o
                                                  C:\Users\Ciccio\AppData\Local\Temp\ccXVDL4Z.ltrans2.ltrans.o
                                                  C:\Users\Ciccio\AppData\Local\Temp\ccXVDL4Z.ltrans1.ltrans.o
                                                  build/obj/testbmk.o (symbol from plugin)
                                                  build/obj/testsys.o (symbol from plugin)
                                                  build/obj/testqueues.o (symbol from plugin)
                                                  build/obj/testevt.o (symbol from plugin)
                                                  build/obj/testmbox.o (symbol from plugin)
                                                  build/obj/testmtx.o (symbol from plugin)
                                                  build/obj/testsem.o (symbol from plugin)
                                                  build/obj/testthd.o (symbol from plugin)
                                                  build/obj/test.o (symbol from plugin)
                                                  build/obj/i2c_lld.o (symbol from plugin)
                                                  build/obj/stm32_dma.o (symbol from plugin)
                                                  build/obj/nvic.o (symbol from plugin)
                                                  build/obj/serial.o (symbol from plugin)
                                                  build/obj/pal.o (symbol from plugin)
                                                  build/obj/i2c.o (symbol from plugin)
                                                  build/obj/hal_buffers.o (symbol from plugin)
                                                  build/obj/st.o (symbol from plugin)
                                                  build/obj/chmempools.o (symbol from plugin)
                                                  build/obj/chheap.o (symbol from plugin)
                                                  build/obj/chmemcore.o (symbol from plugin)
                                                  build/obj/chqueues.o (symbol from plugin)
                                                  build/obj/chmboxes.o (symbol from plugin)
                                                  build/obj/chmsg.o (symbol from plugin)
                                                  build/obj/chevents.o (symbol from plugin)
                                                  build/obj/chcond.o (symbol from plugin)
                                                  build/obj/chmtx.o (symbol from plugin)
                                                  build/obj/chsem.o (symbol from plugin)
                                                  build/obj/chregistry.o (symbol from plugin)
                                                  build/obj/chdynamic.o (symbol from plugin)
                                                  build/obj/chthreads.o (symbol from plugin)
                                                  build/obj/chschd.o (symbol from plugin)
                                                  build/obj/chvt.o (symbol from plugin)
                                                  build/obj/chdebug.o (symbol from plugin)
chSysInit                                         C:\Users\Ciccio\AppData\Local\Temp\ccXVDL4Z.ltrans11.ltrans.o
                                                  build/obj/chsys.o (symbol from plugin)
                                                  C:\Users\Ciccio\AppData\Local\Temp\ccXVDL4Z.ltrans0.ltrans.o
                                                  build/obj/main.o (symbol from plugin)
chSysIntegrityCheckI                              C:\Users\Ciccio\AppData\Local\Temp\ccXVDL4Z.ltrans11.ltrans.o
                                                  build/obj/chsys.o (symbol from plugin)
                                                  C:\Users\Ciccio\AppData\Local\Temp\ccXVDL4Z.ltrans1.ltrans.o
                                                  build/obj/testsys.o (symbol from plugin)
chSysIsCounterWithinX                             build/obj/chsys.o (symbol from plugin)
chSysLock.lto_priv.155                            C:\Users\Ciccio\AppData\Local\Temp\ccXVDL4Z.ltrans2.ltrans.o
                                                  C:\Users\Ciccio\AppData\Local\Temp\ccXVDL4Z.ltrans1.ltrans.o
chSysLock.lto_priv.177                            C:\Users\Ciccio\AppData\Local\Temp\ccXVDL4Z.ltrans4.ltrans.o
                                                  C:\Users\Ciccio\AppData\Local\Temp\ccXVDL4Z.ltrans3.ltrans.o
chSysLock.lto_priv.200                            C:\Users\Ciccio\AppData\Local\Temp\ccXVDL4Z.ltrans5.ltrans.o
                                                  C:\Users\Ciccio\AppData\Local\Temp\ccXVDL4Z.ltrans4.ltrans.o
chSysLock.lto_priv.317                            C:\Users\Ciccio\AppData\Local\Temp\ccXVDL4Z.ltrans9.ltrans.o
                                                  C:\Users\Ciccio\AppData\Local\Temp\ccXVDL4Z.ltrans8.ltrans.o
chSysLock.lto_priv.358                            C:\Users\Ciccio\AppData\Local\Temp\ccXVDL4Z.ltrans10.ltrans.o
                                                  C:\Users\Ciccio\AppData\Local\Temp\ccXVDL4Z.ltrans9.ltrans.o
chSysPolledDelayX                                 build/obj/chsys.o (symbol from plugin)
chSysRestoreStatusX                               C:\Users\Ciccio\AppData\Local\Temp\ccXVDL4Z.ltrans11.ltrans.o
                                                  build/obj/chsys.o (symbol from plugin)
                                                  C:\Users\Ciccio\AppData\Local\Temp\ccXVDL4Z.ltrans1.ltrans.o
                                                  build/obj/testsys.o (symbol from plugin)
chSysTimerHandlerI                                C:\Users\Ciccio\AppData\Local\Temp\ccXVDL4Z.ltrans11.ltrans.o
                                                  build/obj/chsys.o (symbol from plugin)
                                                  C:\Users\Ciccio\AppData\Local\Temp\ccXVDL4Z.ltrans6.ltrans.o
                                                  build/obj/st_lld.o (symbol from plugin)
chSysUnlock.lto_priv.152                          C:\Users\Ciccio\AppData\Local\Temp\ccXVDL4Z.ltrans2.ltrans.o
                                                  C:\Users\Ciccio\AppData\Local\Temp\ccXVDL4Z.ltrans1.ltrans.o
chSysUnlock.lto_priv.175                          C:\Users\Ciccio\AppData\Local\Temp\ccXVDL4Z.ltrans4.ltrans.o
                                                  C:\Users\Ciccio\AppData\Local\Temp\ccXVDL4Z.ltrans3.ltrans.o
chSysUnlock.lto_priv.198                          C:\Users\Ciccio\AppData\Local\Temp\ccXVDL4Z.ltrans5.ltrans.o
                                                  C:\Users\Ciccio\AppData\Local\Temp\ccXVDL4Z.ltrans4.ltrans.o
chSysUnlock.lto_priv.312                          C:\Users\Ciccio\AppData\Local\Temp\ccXVDL4Z.ltrans9.ltrans.o
                                                  C:\Users\Ciccio\AppData\Local\Temp\ccXVDL4Z.ltrans8.ltrans.o
chSysUnlock.lto_priv.354                          C:\Users\Ciccio\AppData\Local\Temp\ccXVDL4Z.ltrans10.ltrans.o
                                                  C:\Users\Ciccio\AppData\Local\Temp\ccXVDL4Z.ltrans9.ltrans.o
chTMChainMeasurementToX                           build/obj/chtm.o (symbol from plugin)
                                                  build/obj/chstats.o (symbol from plugin)
chTMObjectInit                                    C:\Users\Ciccio\AppData\Local\Temp\ccXVDL4Z.ltrans11.ltrans.o
                                                  build/obj/chtm.o (symbol from plugin)
                                                  C:\Users\Ciccio\AppData\Local\Temp\ccXVDL4Z.ltrans10.ltrans.o
                                                  build/obj/chstats.o (symbol from plugin)
                                                  build/obj/chthreads.o (symbol from plugin)
chTMStartMeasurementX                             C:\Users\Ciccio\AppData\Local\Temp\ccXVDL4Z.ltrans10.ltrans.o
                                                  build/obj/chtm.o (symbol from plugin)
                                                  C:\Users\Ciccio\AppData\Local\Temp\ccXVDL4Z.ltrans11.ltrans.o
                                                  build/obj/chstats.o (symbol from plugin)
                                                  build/obj/chsys.o (symbol from plugin)
chTMStopMeasurementX                              C:\Users\Ciccio\AppData\Local\Temp\ccXVDL4Z.ltrans10.ltrans.o
                                                  build/obj/chtm.o (symbol from plugin)
                                                  C:\Users\Ciccio\AppData\Local\Temp\ccXVDL4Z.ltrans11.ltrans.o
                                                  build/obj/chstats.o (symbol from plugin)
chThdAddRef                                       C:\Users\Ciccio\AppData\Local\Temp\ccXVDL4Z.ltrans10.ltrans.o
                                                  build/obj/chdynamic.o (symbol from plugin)
                                                  C:\Users\Ciccio\AppData\Local\Temp\ccXVDL4Z.ltrans2.ltrans.o
                                                  build/obj/testdyn.o (symbol from plugin)
chThdCreateFromHeap                               C:\Users\Ciccio\AppData\Local\Temp\ccXVDL4Z.ltrans10.ltrans.o
                                                  build/obj/chdynamic.o (symbol from plugin)
                                                  C:\Users\Ciccio\AppData\Local\Temp\ccXVDL4Z.ltrans2.ltrans.o
                                                  build/obj/testdyn.o (symbol from plugin)
chThdCreateFromMemoryPool                         C:\Users\Ciccio\AppData\Local\Temp\ccXVDL4Z.ltrans10.ltrans.o
                                                  build/obj/chdynamic.o (symbol from plugin)
                                                  C:\Users\Ciccio\AppData\Local\Temp\ccXVDL4Z.ltrans2.ltrans.o
                                                  build/obj/testdyn.o (symbol from plugin)
chThdCreateI                                      C:\Users\Ciccio\AppData\Local\Temp\ccXVDL4Z.ltrans11.ltrans.o
                                                  build/obj/chthreads.o (symbol from plugin)
                                                  C:\Users\Ciccio\AppData\Local\Temp\ccXVDL4Z.ltrans10.ltrans.o
                                                  C:\Users\Ciccio\AppData\Local\Temp\ccXVDL4Z.ltrans5.ltrans.o
                                                  build/obj/testthd.o (symbol from plugin)
                                                  build/obj/chdynamic.o (symbol from plugin)
chThdCreateStatic                                 C:\Users\Ciccio\AppData\Local\Temp\ccXVDL4Z.ltrans11.ltrans.o
                                                  build/obj/chthreads.o (symbol from plugin)
                                                  C:\Users\Ciccio\AppData\Local\Temp\ccXVDL4Z.ltrans5.ltrans.o
                                                  C:\Users\Ciccio\AppData\Local\Temp\ccXVDL4Z.ltrans4.ltrans.o
                                                  C:\Users\Ciccio\AppData\Local\Temp\ccXVDL4Z.ltrans3.ltrans.o
                                                  C:\Users\Ciccio\AppData\Local\Temp\ccXVDL4Z.ltrans2.ltrans.o
                                                  C:\Users\Ciccio\AppData\Local\Temp\ccXVDL4Z.ltrans1.ltrans.o
                                                  C:\Users\Ciccio\AppData\Local\Temp\ccXVDL4Z.ltrans0.ltrans.o
                                                  build/obj/main.o (symbol from plugin)
                                                  build/obj/testbmk.o (symbol from plugin)
                                                  build/obj/testqueues.o (symbol from plugin)
                                                  build/obj/testevt.o (symbol from plugin)
                                                  build/obj/testmsg.o (symbol from plugin)
                                                  build/obj/testmtx.o (symbol from plugin)
                                                  build/obj/testsem.o (symbol from plugin)
                                                  build/obj/testthd.o (symbol from plugin)
                                                  build/obj/chsys.o (symbol from plugin)
chThdDequeueAllI                                  C:\Users\Ciccio\AppData\Local\Temp\ccXVDL4Z.ltrans11.ltrans.o
                                                  build/obj/chthreads.o (symbol from plugin)
                                                  C:\Users\Ciccio\AppData\Local\Temp\ccXVDL4Z.ltrans9.ltrans.o
                                                  C:\Users\Ciccio\AppData\Local\Temp\ccXVDL4Z.ltrans8.ltrans.o
                                                  build/obj/hal_buffers.o (symbol from plugin)
                                                  build/obj/chqueues.o (symbol from plugin)
chThdDequeueNextI                                 C:\Users\Ciccio\AppData\Local\Temp\ccXVDL4Z.ltrans11.ltrans.o
                                                  build/obj/chthreads.o (symbol from plugin)
                                                  C:\Users\Ciccio\AppData\Local\Temp\ccXVDL4Z.ltrans9.ltrans.o
                                                  C:\Users\Ciccio\AppData\Local\Temp\ccXVDL4Z.ltrans8.ltrans.o
                                                  build/obj/hal_buffers.o (symbol from plugin)
                                                  build/obj/chqueues.o (symbol from plugin)
chThdEnqueueTimeoutS                              C:\Users\Ciccio\AppData\Local\Temp\ccXVDL4Z.ltrans11.ltrans.o
                                                  build/obj/chthreads.o (symbol from plugin)
                                                  C:\Users\Ciccio\AppData\Local\Temp\ccXVDL4Z.ltrans9.ltrans.o
                                                  C:\Users\Ciccio\AppData\Local\Temp\ccXVDL4Z.ltrans8.ltrans.o
                                                  build/obj/hal_buffers.o (symbol from plugin)
                                                  build/obj/chqueues.o (symbol from plugin)
chThdExit                                         C:\Users\Ciccio\AppData\Local\Temp\ccXVDL4Z.ltrans11.ltrans.o
                                                  build/obj/chthreads.o (symbol from plugin)
                                                  C:\Users\Ciccio\AppData\Local\Temp\ccXVDL4Z.ltrans1.ltrans.o
                                                  build/obj/testbmk.o (symbol from plugin)
                                                  build/obj/chcoreasm_v7m.o
chThdExitS                                        build/obj/chthreads.o (symbol from plugin)
chThdGetPriorityX.lto_priv.150                    C:\Users\Ciccio\AppData\Local\Temp\ccXVDL4Z.ltrans2.ltrans.o
                                                  C:\Users\Ciccio\AppData\Local\Temp\ccXVDL4Z.ltrans1.ltrans.o
chThdGetPriorityX.lto_priv.188                    C:\Users\Ciccio\AppData\Local\Temp\ccXVDL4Z.ltrans5.ltrans.o
                                                  C:\Users\Ciccio\AppData\Local\Temp\ccXVDL4Z.ltrans4.ltrans.o
chThdRelease                                      C:\Users\Ciccio\AppData\Local\Temp\ccXVDL4Z.ltrans10.ltrans.o
                                                  build/obj/chdynamic.o (symbol from plugin)
                                                  C:\Users\Ciccio\AppData\Local\Temp\ccXVDL4Z.ltrans11.ltrans.o
                                                  C:\Users\Ciccio\AppData\Local\Temp\ccXVDL4Z.ltrans2.ltrans.o
                                                  build/obj/testdyn.o (symbol from plugin)
                                                  build/obj/chregistry.o (symbol from plugin)
                                                  build/obj/chthreads.o (symbol from plugin)
chThdResume                                       build/obj/chthreads.o (symbol from plugin)
chThdResumeI                                      C:\Users\Ciccio\AppData\Local\Temp\ccXVDL4Z.ltrans11.ltrans.o
                                                  build/obj/chthreads.o (symbol from plugin)
                                                  C:\Users\Ciccio\AppData\Local\Temp\ccXVDL4Z.ltrans6.ltrans.o
                                                  build/obj/i2c_lld.o (symbol from plugin)
chThdResumeS                                      build/obj/chthreads.o (symbol from plugin)
chThdSetPriority                                  C:\Users\Ciccio\AppData\Local\Temp\ccXVDL4Z.ltrans11.ltrans.o
                                                  build/obj/chthreads.o (symbol from plugin)
                                                  C:\Users\Ciccio\AppData\Local\Temp\ccXVDL4Z.ltrans5.ltrans.o
                                                  build/obj/testthd.o (symbol from plugin)
chThdSleep                                        C:\Users\Ciccio\AppData\Local\Temp\ccXVDL4Z.ltrans11.ltrans.o
                                                  build/obj/chthreads.o (symbol from plugin)
                                                  C:\Users\Ciccio\AppData\Local\Temp\ccXVDL4Z.ltrans5.ltrans.o
                                                  C:\Users\Ciccio\AppData\Local\Temp\ccXVDL4Z.ltrans4.ltrans.o
                                                  C:\Users\Ciccio\AppData\Local\Temp\ccXVDL4Z.ltrans3.ltrans.o
                                                  C:\Users\Ciccio\AppData\Local\Temp\ccXVDL4Z.ltrans2.ltrans.o
                                                  C:\Users\Ciccio\AppData\Local\Temp\ccXVDL4Z.ltrans1.ltrans.o
                                                  C:\Users\Ciccio\AppData\Local\Temp\ccXVDL4Z.ltrans0.ltrans.o
                                                  build/obj/main.o (symbol from plugin)
                                                  build/obj/testbmk.o (symbol from plugin)
                                                  build/obj/testsys.o (symbol from plugin)
                                                  build/obj/testdyn.o (symbol from plugin)
                                                  build/obj/testevt.o (symbol from plugin)
                                                  build/obj/testmtx.o (symbol from plugin)
                                                  build/obj/testsem.o (symbol from plugin)
                                                  build/obj/testthd.o (symbol from plugin)
                                                  build/obj/test.o (symbol from plugin)
chThdSleepUntil                                   C:\Users\Ciccio\AppData\Local\Temp\ccXVDL4Z.ltrans11.ltrans.o
                                                  build/obj/chthreads.o (symbol from plugin)
                                                  C:\Users\Ciccio\AppData\Local\Temp\ccXVDL4Z.ltrans5.ltrans.o
                                                  build/obj/testthd.o (symbol from plugin)
chThdSleepUntilWindowed                           build/obj/chthreads.o (symbol from plugin)
chThdStart                                        C:\Users\Ciccio\AppData\Local\Temp\ccXVDL4Z.ltrans11.ltrans.o
                                                  build/obj/chthreads.o (symbol from plugin)
                                                  C:\Users\Ciccio\AppData\Local\Temp\ccXVDL4Z.ltrans5.ltrans.o
                                                  build/obj/testthd.o (symbol from plugin)
chThdSuspendS                                     build/obj/chthreads.o (symbol from plugin)
chThdSuspendTimeoutS                              C:\Users\Ciccio\AppData\Local\Temp\ccXVDL4Z.ltrans11.ltrans.o
                                                  build/obj/chthreads.o (symbol from plugin)
                                                  C:\Users\Ciccio\AppData\Local\Temp\ccXVDL4Z.ltrans6.ltrans.o
                                                  build/obj/i2c_lld.o (symbol from plugin)
chThdTerminate                                    C:\Users\Ciccio\AppData\Local\Temp\ccXVDL4Z.ltrans11.ltrans.o
                                                  build/obj/chthreads.o (symbol from plugin)
                                                  C:\Users\Ciccio\AppData\Local\Temp\ccXVDL4Z.ltrans5.ltrans.o
                                                  build/obj/test.o (symbol from plugin)
chThdWait                                         C:\Users\Ciccio\AppData\Local\Temp\ccXVDL4Z.ltrans11.ltrans.o
                                                  build/obj/chthreads.o (symbol from plugin)
                                                  C:\Users\Ciccio\AppData\Local\Temp\ccXVDL4Z.ltrans5.ltrans.o
                                                  C:\Users\Ciccio\AppData\Local\Temp\ccXVDL4Z.ltrans1.ltrans.o
                                                  build/obj/testbmk.o (symbol from plugin)
                                                  build/obj/test.o (symbol from plugin)
chThdYield                                        C:\Users\Ciccio\AppData\Local\Temp\ccXVDL4Z.ltrans11.ltrans.o
                                                  build/obj/chthreads.o (symbol from plugin)
                                                  C:\Users\Ciccio\AppData\Local\Temp\ccXVDL4Z.ltrans1.ltrans.o
                                                  build/obj/testbmk.o (symbol from plugin)
chVTDoResetI                                      C:\Users\Ciccio\AppData\Local\Temp\ccXVDL4Z.ltrans11.ltrans.o
                                                  build/obj/chvt.o (symbol from plugin)
                                                  C:\Users\Ciccio\AppData\Local\Temp\ccXVDL4Z.ltrans5.ltrans.o
                                                  C:\Users\Ciccio\AppData\Local\Temp\ccXVDL4Z.ltrans1.ltrans.o
                                                  build/obj/testbmk.o (symbol from plugin)
                                                  build/obj/testsys.o (symbol from plugin)
                                                  build/obj/test.o (symbol from plugin)
                                                  build/obj/chschd.o (symbol from plugin)
chVTDoSetI                                        C:\Users\Ciccio\AppData\Local\Temp\ccXVDL4Z.ltrans11.ltrans.o
                                                  build/obj/chvt.o (symbol from plugin)
                                                  C:\Users\Ciccio\AppData\Local\Temp\ccXVDL4Z.ltrans5.ltrans.o
                                                  C:\Users\Ciccio\AppData\Local\Temp\ccXVDL4Z.ltrans1.ltrans.o
                                                  build/obj/testbmk.o (symbol from plugin)
                                                  build/obj/testsys.o (symbol from plugin)
                                                  build/obj/test.o (symbol from plugin)
                                                  build/obj/chschd.o (symbol from plugin)
chVTGetSystemTime.lto_priv.209                    C:\Users\Ciccio\AppData\Local\Temp\ccXVDL4Z.ltrans5.ltrans.o
                                                  C:\Users\Ciccio\AppData\Local\Temp\ccXVDL4Z.ltrans4.ltrans.o
ch_debug                                          C:\Users\Ciccio\AppData\Local\Temp\ccXVDL4Z.ltrans0.ltrans.o
                                                  build/obj/chregistry.o (symbol from plugin)
                                                  C:\Users\Ciccio\AppData\Local\Temp\ccXVDL4Z.ltrans11.ltrans.o
                                                  build/obj/chsys.o (symbol from plugin)
chp.lto_priv.233                                  C:\Users\Ciccio\AppData\Local\Temp\ccXVDL4Z.ltrans0.ltrans.o
                                                  C:\Users\Ciccio\AppData\Local\Temp\ccXVDL4Z.ltrans5.ltrans.o
chprintf                                          build/obj/chprintf.o (symbol from plugin)
                                                  build/obj/main.o (symbol from plugin)
chsnprintf                                        build/obj/chprintf.o (symbol from plugin)
chvprintf                                         build/obj/chprintf.o (symbol from plugin)
default_config.lto_priv.240                       C:\Users\Ciccio\AppData\Local\Temp\ccXVDL4Z.ltrans0.ltrans.o
                                                  C:\Users\Ciccio\AppData\Local\Temp\ccXVDL4Z.ltrans5.ltrans.o
default_heap.lto_priv.332                         C:\Users\Ciccio\AppData\Local\Temp\ccXVDL4Z.ltrans0.ltrans.o
                                                  C:\Users\Ciccio\AppData\Local\Temp\ccXVDL4Z.ltrans8.ltrans.o
dmaInit                                           build/obj/stm32_dma.o (symbol from plugin)
                                                  build/obj/hal_lld.o (symbol from plugin)
dmaStreamAllocate                                 C:\Users\Ciccio\AppData\Local\Temp\ccXVDL4Z.ltrans7.ltrans.o
                                                  build/obj/stm32_dma.o (symbol from plugin)
                                                  C:\Users\Ciccio\AppData\Local\Temp\ccXVDL4Z.ltrans6.ltrans.o
                                                  build/obj/i2c_lld.o (symbol from plugin)
dmaStreamRelease                                  C:\Users\Ciccio\AppData\Local\Temp\ccXVDL4Z.ltrans7.ltrans.o
                                                  build/obj/stm32_dma.o (symbol from plugin)
                                                  C:\Users\Ciccio\AppData\Local\Temp\ccXVDL4Z.ltrans6.ltrans.o
                                                  build/obj/i2c_lld.o (symbol from plugin)
dma_isr_redir.lto_priv.279                        C:\Users\Ciccio\AppData\Local\Temp\ccXVDL4Z.ltrans0.ltrans.o
                                                  C:\Users\Ciccio\AppData\Local\Temp\ccXVDL4Z.ltrans7.ltrans.o
dma_streams_mask.lto_priv.277                     C:\Users\Ciccio\AppData\Local\Temp\ccXVDL4Z.ltrans0.ltrans.o
                                                  C:\Users\Ciccio\AppData\Local\Temp\ccXVDL4Z.ltrans7.ltrans.o
dyn1_execute.lto_priv.61                          C:\Users\Ciccio\AppData\Local\Temp\ccXVDL4Z.ltrans2.ltrans.o
                                                  C:\Users\Ciccio\AppData\Local\Temp\ccXVDL4Z.ltrans0.ltrans.o
dyn1_setup.lto_priv.60                            C:\Users\Ciccio\AppData\Local\Temp\ccXVDL4Z.ltrans2.ltrans.o
                                                  C:\Users\Ciccio\AppData\Local\Temp\ccXVDL4Z.ltrans0.ltrans.o
dyn2_execute.lto_priv.59                          C:\Users\Ciccio\AppData\Local\Temp\ccXVDL4Z.ltrans2.ltrans.o
                                                  C:\Users\Ciccio\AppData\Local\Temp\ccXVDL4Z.ltrans0.ltrans.o
dyn2_setup.lto_priv.58                            C:\Users\Ciccio\AppData\Local\Temp\ccXVDL4Z.ltrans2.ltrans.o
                                                  C:\Users\Ciccio\AppData\Local\Temp\ccXVDL4Z.ltrans0.ltrans.o
dyn3_execute.lto_priv.57                          C:\Users\Ciccio\AppData\Local\Temp\ccXVDL4Z.ltrans2.ltrans.o
                                                  C:\Users\Ciccio\AppData\Local\Temp\ccXVDL4Z.ltrans0.ltrans.o
dyn3_setup.lto_priv.56                            C:\Users\Ciccio\AppData\Local\Temp\ccXVDL4Z.ltrans2.ltrans.o
                                                  C:\Users\Ciccio\AppData\Local\Temp\ccXVDL4Z.ltrans0.ltrans.o
endmem.lto_priv.335                               C:\Users\Ciccio\AppData\Local\Temp\ccXVDL4Z.ltrans0.ltrans.o
                                                  C:\Users\Ciccio\AppData\Local\Temp\ccXVDL4Z.ltrans8.ltrans.o
es1.lto_priv.172                                  C:\Users\Ciccio\AppData\Local\Temp\ccXVDL4Z.ltrans0.ltrans.o
                                                  C:\Users\Ciccio\AppData\Local\Temp\ccXVDL4Z.ltrans3.ltrans.o
es2.lto_priv.173                                  C:\Users\Ciccio\AppData\Local\Temp\ccXVDL4Z.ltrans0.ltrans.o
                                                  C:\Users\Ciccio\AppData\Local\Temp\ccXVDL4Z.ltrans3.ltrans.o
evhndl.lto_priv.174                               C:\Users\Ciccio\AppData\Local\Temp\ccXVDL4Z.ltrans0.ltrans.o
                                                  C:\Users\Ciccio\AppData\Local\Temp\ccXVDL4Z.ltrans3.ltrans.o
evt1_execute.lto_priv.73                          C:\Users\Ciccio\AppData\Local\Temp\ccXVDL4Z.ltrans3.ltrans.o
                                                  C:\Users\Ciccio\AppData\Local\Temp\ccXVDL4Z.ltrans0.ltrans.o
evt1_setup.lto_priv.72                            C:\Users\Ciccio\AppData\Local\Temp\ccXVDL4Z.ltrans3.ltrans.o
                                                  C:\Users\Ciccio\AppData\Local\Temp\ccXVDL4Z.ltrans0.ltrans.o
evt2_execute.lto_priv.71                          C:\Users\Ciccio\AppData\Local\Temp\ccXVDL4Z.ltrans3.ltrans.o
                                                  C:\Users\Ciccio\AppData\Local\Temp\ccXVDL4Z.ltrans0.ltrans.o
evt2_setup.lto_priv.70                            C:\Users\Ciccio\AppData\Local\Temp\ccXVDL4Z.ltrans3.ltrans.o
                                                  C:\Users\Ciccio\AppData\Local\Temp\ccXVDL4Z.ltrans0.ltrans.o
evt3_execute.lto_priv.69                          C:\Users\Ciccio\AppData\Local\Temp\ccXVDL4Z.ltrans2.ltrans.o
                                                  C:\Users\Ciccio\AppData\Local\Temp\ccXVDL4Z.ltrans0.ltrans.o
evt3_setup.lto_priv.68                            C:\Users\Ciccio\AppData\Local\Temp\ccXVDL4Z.ltrans2.ltrans.o
                                                  C:\Users\Ciccio\AppData\Local\Temp\ccXVDL4Z.ltrans0.ltrans.o
failpoint.lto_priv.236                            C:\Users\Ciccio\AppData\Local\Temp\ccXVDL4Z.ltrans0.ltrans.o
                                                  C:\Users\Ciccio\AppData\Local\Temp\ccXVDL4Z.ltrans5.ltrans.o
get.lto_priv.2                                    C:\Users\Ciccio\AppData\Local\Temp\ccXVDL4Z.ltrans7.ltrans.o
                                                  C:\Users\Ciccio\AppData\Local\Temp\ccXVDL4Z.ltrans0.ltrans.o
getPWM                                            build/obj/main.o (symbol from plugin)
gett.lto_priv.106                                 C:\Users\Ciccio\AppData\Local\Temp\ccXVDL4Z.ltrans7.ltrans.o
                                                  C:\Users\Ciccio\AppData\Local\Temp\ccXVDL4Z.ltrans0.ltrans.o
h1.lto_priv.74                                    C:\Users\Ciccio\AppData\Local\Temp\ccXVDL4Z.ltrans3.ltrans.o
                                                  C:\Users\Ciccio\AppData\Local\Temp\ccXVDL4Z.ltrans0.ltrans.o
h2.lto_priv.75                                    C:\Users\Ciccio\AppData\Local\Temp\ccXVDL4Z.ltrans3.ltrans.o
                                                  C:\Users\Ciccio\AppData\Local\Temp\ccXVDL4Z.ltrans0.ltrans.o
h3.lto_priv.76                                    C:\Users\Ciccio\AppData\Local\Temp\ccXVDL4Z.ltrans3.ltrans.o
                                                  C:\Users\Ciccio\AppData\Local\Temp\ccXVDL4Z.ltrans0.ltrans.o
halInit                                           C:\Users\Ciccio\AppData\Local\Temp\ccXVDL4Z.ltrans8.ltrans.o
                                                  build/obj/hal.o (symbol from plugin)
                                                  C:\Users\Ciccio\AppData\Local\Temp\ccXVDL4Z.ltrans0.ltrans.o
                                                  build/obj/main.o (symbol from plugin)
hal_lld_init                                      C:\Users\Ciccio\AppData\Local\Temp\ccXVDL4Z.ltrans7.ltrans.o
                                                  build/obj/hal_lld.o (symbol from plugin)
                                                  C:\Users\Ciccio\AppData\Local\Temp\ccXVDL4Z.ltrans8.ltrans.o
                                                  build/obj/hal.o (symbol from plugin)
heap1.lto_priv.170                                C:\Users\Ciccio\AppData\Local\Temp\ccXVDL4Z.ltrans0.ltrans.o
                                                  C:\Users\Ciccio\AppData\Local\Temp\ccXVDL4Z.ltrans2.ltrans.o
heap1_execute.lto_priv.67                         C:\Users\Ciccio\AppData\Local\Temp\ccXVDL4Z.ltrans2.ltrans.o
                                                  C:\Users\Ciccio\AppData\Local\Temp\ccXVDL4Z.ltrans0.ltrans.o
heap1_setup.lto_priv.66                           C:\Users\Ciccio\AppData\Local\Temp\ccXVDL4Z.ltrans2.ltrans.o
                                                  C:\Users\Ciccio\AppData\Local\Temp\ccXVDL4Z.ltrans0.ltrans.o
i2cAcquireBus                                     C:\Users\Ciccio\AppData\Local\Temp\ccXVDL4Z.ltrans7.ltrans.o
                                                  build/obj/i2c.o (symbol from plugin)
                                                  C:\Users\Ciccio\AppData\Local\Temp\ccXVDL4Z.ltrans0.ltrans.o
                                                  build/obj/main.o (symbol from plugin)
i2cGetErrors                                      build/obj/i2c.o (symbol from plugin)
i2cInit                                           C:\Users\Ciccio\AppData\Local\Temp\ccXVDL4Z.ltrans7.ltrans.o
                                                  build/obj/i2c.o (symbol from plugin)
                                                  C:\Users\Ciccio\AppData\Local\Temp\ccXVDL4Z.ltrans8.ltrans.o
                                                  build/obj/hal.o (symbol from plugin)
i2cMasterReceiveTimeout                           build/obj/i2c.o (symbol from plugin)
i2cMasterTransmitTimeout                          C:\Users\Ciccio\AppData\Local\Temp\ccXVDL4Z.ltrans7.ltrans.o
                                                  build/obj/i2c.o (symbol from plugin)
                                                  C:\Users\Ciccio\AppData\Local\Temp\ccXVDL4Z.ltrans0.ltrans.o
                                                  build/obj/main.o (symbol from plugin)
i2cObjectInit                                     C:\Users\Ciccio\AppData\Local\Temp\ccXVDL4Z.ltrans7.ltrans.o
                                                  build/obj/i2c.o (symbol from plugin)
                                                  C:\Users\Ciccio\AppData\Local\Temp\ccXVDL4Z.ltrans6.ltrans.o
                                                  build/obj/i2c_lld.o (symbol from plugin)
i2cReleaseBus                                     C:\Users\Ciccio\AppData\Local\Temp\ccXVDL4Z.ltrans7.ltrans.o
                                                  build/obj/i2c.o (symbol from plugin)
                                                  C:\Users\Ciccio\AppData\Local\Temp\ccXVDL4Z.ltrans0.ltrans.o
                                                  build/obj/main.o (symbol from plugin)
i2cStart                                          C:\Users\Ciccio\AppData\Local\Temp\ccXVDL4Z.ltrans7.ltrans.o
                                                  build/obj/i2c.o (symbol from plugin)
                                                  C:\Users\Ciccio\AppData\Local\Temp\ccXVDL4Z.ltrans0.ltrans.o
                                                  build/obj/main.o (symbol from plugin)
i2cStop                                           build/obj/i2c.o (symbol from plugin)
i2c_lld_init                                      C:\Users\Ciccio\AppData\Local\Temp\ccXVDL4Z.ltrans6.ltrans.o
                                                  build/obj/i2c_lld.o (symbol from plugin)
                                                  C:\Users\Ciccio\AppData\Local\Temp\ccXVDL4Z.ltrans7.ltrans.o
                                                  build/obj/i2c.o (symbol from plugin)
i2c_lld_master_receive_timeout                    C:\Users\Ciccio\AppData\Local\Temp\ccXVDL4Z.ltrans6.ltrans.o
                                                  build/obj/i2c_lld.o (symbol from plugin)
                                                  C:\Users\Ciccio\AppData\Local\Temp\ccXVDL4Z.ltrans7.ltrans.o
                                                  build/obj/i2c.o (symbol from plugin)
i2c_lld_master_transmit_timeout                   C:\Users\Ciccio\AppData\Local\Temp\ccXVDL4Z.ltrans6.ltrans.o
                                                  build/obj/i2c_lld.o (symbol from plugin)
                                                  C:\Users\Ciccio\AppData\Local\Temp\ccXVDL4Z.ltrans7.ltrans.o
                                                  build/obj/i2c.o (symbol from plugin)
i2c_lld_start                                     C:\Users\Ciccio\AppData\Local\Temp\ccXVDL4Z.ltrans6.ltrans.o
                                                  build/obj/i2c_lld.o (symbol from plugin)
                                                  C:\Users\Ciccio\AppData\Local\Temp\ccXVDL4Z.ltrans7.ltrans.o
                                                  build/obj/i2c.o (symbol from plugin)
i2c_lld_stop                                      C:\Users\Ciccio\AppData\Local\Temp\ccXVDL4Z.ltrans6.ltrans.o
                                                  build/obj/i2c_lld.o (symbol from plugin)
                                                  C:\Users\Ciccio\AppData\Local\Temp\ccXVDL4Z.ltrans7.ltrans.o
                                                  build/obj/i2c.o (symbol from plugin)
ib.6580.lto_priv.147                              C:\Users\Ciccio\AppData\Local\Temp\ccXVDL4Z.ltrans0.ltrans.o
                                                  C:\Users\Ciccio\AppData\Local\Temp\ccXVDL4Z.ltrans1.ltrans.o
ibqGetEmptyBufferI                                build/obj/hal_buffers.o (symbol from plugin)
ibqGetFullBufferTimeout                           build/obj/hal_buffers.o (symbol from plugin)
ibqGetFullBufferTimeoutS                          build/obj/hal_buffers.o (symbol from plugin)
ibqGetTimeout                                     build/obj/hal_buffers.o (symbol from plugin)
ibqObjectInit                                     build/obj/hal_buffers.o (symbol from plugin)
ibqPostFullBufferI                                build/obj/hal_buffers.o (symbol from plugin)
ibqReadTimeout                                    build/obj/hal_buffers.o (symbol from plugin)
ibqReleaseEmptyBuffer                             build/obj/hal_buffers.o (symbol from plugin)
ibqReleaseEmptyBufferS                            build/obj/hal_buffers.o (symbol from plugin)
ibqResetI                                         build/obj/hal_buffers.o (symbol from plugin)
iq.6581.lto_priv.146                              C:\Users\Ciccio\AppData\Local\Temp\ccXVDL4Z.ltrans0.ltrans.o
                                                  C:\Users\Ciccio\AppData\Local\Temp\ccXVDL4Z.ltrans1.ltrans.o
iq.lto_priv.167                                   C:\Users\Ciccio\AppData\Local\Temp\ccXVDL4Z.ltrans0.ltrans.o
                                                  C:\Users\Ciccio\AppData\Local\Temp\ccXVDL4Z.ltrans2.ltrans.o
local_fail.lto_priv.235                           C:\Users\Ciccio\AppData\Local\Temp\ccXVDL4Z.ltrans0.ltrans.o
                                                  C:\Users\Ciccio\AppData\Local\Temp\ccXVDL4Z.ltrans5.ltrans.o
m1.lto_priv.195                                   C:\Users\Ciccio\AppData\Local\Temp\ccXVDL4Z.ltrans0.ltrans.o
                                                  C:\Users\Ciccio\AppData\Local\Temp\ccXVDL4Z.ltrans4.ltrans.o
m2.lto_priv.194                                   C:\Users\Ciccio\AppData\Local\Temp\ccXVDL4Z.ltrans0.ltrans.o
                                                  C:\Users\Ciccio\AppData\Local\Temp\ccXVDL4Z.ltrans4.ltrans.o
main                                              C:\Users\Ciccio\AppData\Local\Temp\ccXVDL4Z.ltrans0.ltrans.o
                                                  build/obj/main.o (symbol from plugin)
                                                  build/obj/crt0_v7m.o
mb1.lto_priv.179                                  C:\Users\Ciccio\AppData\Local\Temp\ccXVDL4Z.ltrans0.ltrans.o
                                                  C:\Users\Ciccio\AppData\Local\Temp\ccXVDL4Z.ltrans3.ltrans.o
mbox1_execute.lto_priv.78                         C:\Users\Ciccio\AppData\Local\Temp\ccXVDL4Z.ltrans3.ltrans.o
                                                  C:\Users\Ciccio\AppData\Local\Temp\ccXVDL4Z.ltrans0.ltrans.o
mbox1_setup.lto_priv.77                           C:\Users\Ciccio\AppData\Local\Temp\ccXVDL4Z.ltrans3.ltrans.o
                                                  C:\Users\Ciccio\AppData\Local\Temp\ccXVDL4Z.ltrans0.ltrans.o
memcpy                                            c:/chibistudio/tools/gnu tools arm embedded/4.9 2015q3/bin/../lib/gcc/arm-none-eabi/4.9.3/../../../../arm-none-eabi/lib/armv7e-m\libg.a(lib_a-memcpy.o)
                                                  C:\Users\Ciccio\AppData\Local\Temp\ccXVDL4Z.ltrans8.ltrans.o
                                                  C:\Users\Ciccio\AppData\Local\Temp\ccXVDL4Z.ltrans0.ltrans.o
mp1.lto_priv.62                                   C:\Users\Ciccio\AppData\Local\Temp\ccXVDL4Z.ltrans0.ltrans.o
                                                  C:\Users\Ciccio\AppData\Local\Temp\ccXVDL4Z.ltrans2.ltrans.o
mp1.lto_priv.63                                   C:\Users\Ciccio\AppData\Local\Temp\ccXVDL4Z.ltrans0.ltrans.o
                                                  C:\Users\Ciccio\AppData\Local\Temp\ccXVDL4Z.ltrans2.ltrans.o
msObjectInit                                      build/obj/memstreams.o (symbol from plugin)
                                                  build/obj/chprintf.o (symbol from plugin)
msg1_execute.lto_priv.79                          C:\Users\Ciccio\AppData\Local\Temp\ccXVDL4Z.ltrans4.ltrans.o
                                                  C:\Users\Ciccio\AppData\Local\Temp\ccXVDL4Z.ltrans0.ltrans.o
mtx1.lto_priv.143                                 C:\Users\Ciccio\AppData\Local\Temp\ccXVDL4Z.ltrans0.ltrans.o
                                                  C:\Users\Ciccio\AppData\Local\Temp\ccXVDL4Z.ltrans1.ltrans.o
mtx1_execute.lto_priv.91                          C:\Users\Ciccio\AppData\Local\Temp\ccXVDL4Z.ltrans4.ltrans.o
                                                  C:\Users\Ciccio\AppData\Local\Temp\ccXVDL4Z.ltrans0.ltrans.o
mtx1_setup.lto_priv.90                            C:\Users\Ciccio\AppData\Local\Temp\ccXVDL4Z.ltrans4.ltrans.o
                                                  C:\Users\Ciccio\AppData\Local\Temp\ccXVDL4Z.ltrans0.ltrans.o
mtx4_execute.lto_priv.89                          C:\Users\Ciccio\AppData\Local\Temp\ccXVDL4Z.ltrans4.ltrans.o
                                                  C:\Users\Ciccio\AppData\Local\Temp\ccXVDL4Z.ltrans0.ltrans.o
mtx4_setup.lto_priv.88                            C:\Users\Ciccio\AppData\Local\Temp\ccXVDL4Z.ltrans4.ltrans.o
                                                  C:\Users\Ciccio\AppData\Local\Temp\ccXVDL4Z.ltrans0.ltrans.o
mtx5_execute.lto_priv.87                          C:\Users\Ciccio\AppData\Local\Temp\ccXVDL4Z.ltrans4.ltrans.o
                                                  C:\Users\Ciccio\AppData\Local\Temp\ccXVDL4Z.ltrans0.ltrans.o
mtx5_setup.lto_priv.86                            C:\Users\Ciccio\AppData\Local\Temp\ccXVDL4Z.ltrans4.ltrans.o
                                                  C:\Users\Ciccio\AppData\Local\Temp\ccXVDL4Z.ltrans0.ltrans.o
mtx6_execute.lto_priv.85                          C:\Users\Ciccio\AppData\Local\Temp\ccXVDL4Z.ltrans4.ltrans.o
                                                  C:\Users\Ciccio\AppData\Local\Temp\ccXVDL4Z.ltrans0.ltrans.o
mtx6_setup.lto_priv.84                            C:\Users\Ciccio\AppData\Local\Temp\ccXVDL4Z.ltrans4.ltrans.o
                                                  C:\Users\Ciccio\AppData\Local\Temp\ccXVDL4Z.ltrans0.ltrans.o
mtx7_execute.lto_priv.83                          C:\Users\Ciccio\AppData\Local\Temp\ccXVDL4Z.ltrans4.ltrans.o
                                                  C:\Users\Ciccio\AppData\Local\Temp\ccXVDL4Z.ltrans0.ltrans.o
mtx7_setup.lto_priv.82                            C:\Users\Ciccio\AppData\Local\Temp\ccXVDL4Z.ltrans4.ltrans.o
                                                  C:\Users\Ciccio\AppData\Local\Temp\ccXVDL4Z.ltrans0.ltrans.o
mtx8_execute.lto_priv.81                          C:\Users\Ciccio\AppData\Local\Temp\ccXVDL4Z.ltrans4.ltrans.o
                                                  C:\Users\Ciccio\AppData\Local\Temp\ccXVDL4Z.ltrans0.ltrans.o
mtx8_setup.lto_priv.80                            C:\Users\Ciccio\AppData\Local\Temp\ccXVDL4Z.ltrans4.ltrans.o
                                                  C:\Users\Ciccio\AppData\Local\Temp\ccXVDL4Z.ltrans0.ltrans.o
nextmem.lto_priv.336                              C:\Users\Ciccio\AppData\Local\Temp\ccXVDL4Z.ltrans0.ltrans.o
                                                  C:\Users\Ciccio\AppData\Local\Temp\ccXVDL4Z.ltrans8.ltrans.o
notify.lto_priv.55                                C:\Users\Ciccio\AppData\Local\Temp\ccXVDL4Z.ltrans2.ltrans.o
                                                  C:\Users\Ciccio\AppData\Local\Temp\ccXVDL4Z.ltrans1.ltrans.o
                                                  C:\Users\Ciccio\AppData\Local\Temp\ccXVDL4Z.ltrans0.ltrans.o
nvicClearPending                                  build/obj/nvic.o (symbol from plugin)
nvicDisableVector                                 C:\Users\Ciccio\AppData\Local\Temp\ccXVDL4Z.ltrans7.ltrans.o
                                                  build/obj/nvic.o (symbol from plugin)
                                                  C:\Users\Ciccio\AppData\Local\Temp\ccXVDL4Z.ltrans6.ltrans.o
                                                  C:\Users\Ciccio\AppData\Local\Temp\ccXVDL4Z.ltrans5.ltrans.o
                                                  build/obj/serial_lld.o (symbol from plugin)
                                                  build/obj/i2c_lld.o (symbol from plugin)
                                                  build/obj/stm32_dma.o (symbol from plugin)
nvicEnableVector                                  C:\Users\Ciccio\AppData\Local\Temp\ccXVDL4Z.ltrans7.ltrans.o
                                                  build/obj/nvic.o (symbol from plugin)
                                                  C:\Users\Ciccio\AppData\Local\Temp\ccXVDL4Z.ltrans6.ltrans.o
                                                  C:\Users\Ciccio\AppData\Local\Temp\ccXVDL4Z.ltrans5.ltrans.o
                                                  build/obj/serial_lld.o (symbol from plugin)
                                                  build/obj/i2c_lld.o (symbol from plugin)
                                                  build/obj/st_lld.o (symbol from plugin)
                                                  build/obj/stm32_dma.o (symbol from plugin)
nvicSetSystemHandlerPriority                      build/obj/nvic.o (symbol from plugin)
obqFlush                                          build/obj/hal_buffers.o (symbol from plugin)
obqGetEmptyBufferTimeout                          build/obj/hal_buffers.o (symbol from plugin)
obqGetEmptyBufferTimeoutS                         build/obj/hal_buffers.o (symbol from plugin)
obqGetFullBufferI                                 build/obj/hal_buffers.o (symbol from plugin)
obqObjectInit                                     build/obj/hal_buffers.o (symbol from plugin)
obqPostFullBuffer                                 build/obj/hal_buffers.o (symbol from plugin)
obqPostFullBufferS                                C:\Users\Ciccio\AppData\Local\Temp\ccXVDL4Z.ltrans8.ltrans.o
                                                  build/obj/hal_buffers.o (symbol from plugin)
                                                  C:\Users\Ciccio\AppData\Local\Temp\ccXVDL4Z.ltrans7.ltrans.o
obqPutTimeout                                     build/obj/hal_buffers.o (symbol from plugin)
obqReleaseEmptyBufferI                            build/obj/hal_buffers.o (symbol from plugin)
obqResetI                                         build/obj/hal_buffers.o (symbol from plugin)
obqTryFlushI                                      build/obj/hal_buffers.o (symbol from plugin)
obqWriteTimeout                                   build/obj/hal_buffers.o (symbol from plugin)
oq.lto_priv.162                                   C:\Users\Ciccio\AppData\Local\Temp\ccXVDL4Z.ltrans0.ltrans.o
                                                  C:\Users\Ciccio\AppData\Local\Temp\ccXVDL4Z.ltrans1.ltrans.o
osalEventBroadcastFlagsI.lto_priv.244             C:\Users\Ciccio\AppData\Local\Temp\ccXVDL4Z.ltrans6.ltrans.o
                                                  C:\Users\Ciccio\AppData\Local\Temp\ccXVDL4Z.ltrans5.ltrans.o
osalSysLock.lto_priv.288                          C:\Users\Ciccio\AppData\Local\Temp\ccXVDL4Z.ltrans8.ltrans.o
                                                  C:\Users\Ciccio\AppData\Local\Temp\ccXVDL4Z.ltrans7.ltrans.o
osalSysLockFromISR.lto_priv.246                   C:\Users\Ciccio\AppData\Local\Temp\ccXVDL4Z.ltrans6.ltrans.o
                                                  C:\Users\Ciccio\AppData\Local\Temp\ccXVDL4Z.ltrans5.ltrans.o
osalSysUnlock.lto_priv.285                        C:\Users\Ciccio\AppData\Local\Temp\ccXVDL4Z.ltrans8.ltrans.o
                                                  C:\Users\Ciccio\AppData\Local\Temp\ccXVDL4Z.ltrans7.ltrans.o
osalSysUnlockFromISR.lto_priv.243                 C:\Users\Ciccio\AppData\Local\Temp\ccXVDL4Z.ltrans6.ltrans.o
                                                  C:\Users\Ciccio\AppData\Local\Temp\ccXVDL4Z.ltrans5.ltrans.o
palReadBus                                        build/obj/pal.o (symbol from plugin)
palSetBusMode                                     build/obj/pal.o (symbol from plugin)
palWriteBus                                       build/obj/pal.o (symbol from plugin)
pal_default_config                                C:\Users\Ciccio\AppData\Local\Temp\ccXVDL4Z.ltrans0.ltrans.o
                                                  build/obj/board.o (symbol from plugin)
                                                  C:\Users\Ciccio\AppData\Local\Temp\ccXVDL4Z.ltrans8.ltrans.o
                                                  build/obj/hal.o (symbol from plugin)
patternbmk                                        build/obj/testbmk.o (symbol from plugin)
                                                  build/obj/test.o (symbol from plugin)
patterndyn                                        build/obj/testdyn.o (symbol from plugin)
                                                  build/obj/test.o (symbol from plugin)
patternevt                                        build/obj/testevt.o (symbol from plugin)
                                                  build/obj/test.o (symbol from plugin)
patternheap                                       build/obj/testheap.o (symbol from plugin)
                                                  build/obj/test.o (symbol from plugin)
patternmbox                                       build/obj/testmbox.o (symbol from plugin)
                                                  build/obj/test.o (symbol from plugin)
patternmsg                                        build/obj/testmsg.o (symbol from plugin)
                                                  build/obj/test.o (symbol from plugin)
patternmtx                                        build/obj/testmtx.o (symbol from plugin)
                                                  build/obj/test.o (symbol from plugin)
patternpools                                      build/obj/testpools.o (symbol from plugin)
                                                  build/obj/test.o (symbol from plugin)
patternqueues                                     build/obj/testqueues.o (symbol from plugin)
                                                  build/obj/test.o (symbol from plugin)
patterns.lto_priv.234                             C:\Users\Ciccio\AppData\Local\Temp\ccXVDL4Z.ltrans0.ltrans.o
                                                  C:\Users\Ciccio\AppData\Local\Temp\ccXVDL4Z.ltrans5.ltrans.o
patternsem                                        build/obj/testsem.o (symbol from plugin)
                                                  build/obj/test.o (symbol from plugin)
patternsys                                        build/obj/testsys.o (symbol from plugin)
                                                  build/obj/test.o (symbol from plugin)
patternthd                                        build/obj/testthd.o (symbol from plugin)
                                                  build/obj/test.o (symbol from plugin)
pools1_execute.lto_priv.65                        C:\Users\Ciccio\AppData\Local\Temp\ccXVDL4Z.ltrans2.ltrans.o
                                                  C:\Users\Ciccio\AppData\Local\Temp\ccXVDL4Z.ltrans0.ltrans.o
pools1_setup.lto_priv.64                          C:\Users\Ciccio\AppData\Local\Temp\ccXVDL4Z.ltrans2.ltrans.o
                                                  C:\Users\Ciccio\AppData\Local\Temp\ccXVDL4Z.ltrans0.ltrans.o
port_lock_from_isr.lto_priv.257                   C:\Users\Ciccio\AppData\Local\Temp\ccXVDL4Z.ltrans7.ltrans.o
                                                  C:\Users\Ciccio\AppData\Local\Temp\ccXVDL4Z.ltrans6.ltrans.o
port_rt_get_counter_value.lto_priv.406            C:\Users\Ciccio\AppData\Local\Temp\ccXVDL4Z.ltrans11.ltrans.o
                                                  C:\Users\Ciccio\AppData\Local\Temp\ccXVDL4Z.ltrans10.ltrans.o
port_unlock_from_isr.lto_priv.254                 C:\Users\Ciccio\AppData\Local\Temp\ccXVDL4Z.ltrans7.ltrans.o
                                                  C:\Users\Ciccio\AppData\Local\Temp\ccXVDL4Z.ltrans6.ltrans.o
put.lto_priv.4                                    C:\Users\Ciccio\AppData\Local\Temp\ccXVDL4Z.ltrans7.ltrans.o
                                                  C:\Users\Ciccio\AppData\Local\Temp\ccXVDL4Z.ltrans0.ltrans.o
putt.lto_priv.105                                 C:\Users\Ciccio\AppData\Local\Temp\ccXVDL4Z.ltrans7.ltrans.o
                                                  C:\Users\Ciccio\AppData\Local\Temp\ccXVDL4Z.ltrans0.ltrans.o
queue_fifo_remove.lto_priv.362                    C:\Users\Ciccio\AppData\Local\Temp\ccXVDL4Z.ltrans10.ltrans.o
                                                  C:\Users\Ciccio\AppData\Local\Temp\ccXVDL4Z.ltrans9.ltrans.o
queue_init.lto_priv.341                           C:\Users\Ciccio\AppData\Local\Temp\ccXVDL4Z.ltrans10.ltrans.o
                                                  C:\Users\Ciccio\AppData\Local\Temp\ccXVDL4Z.ltrans9.ltrans.o
queue_isempty.lto_priv.202                        C:\Users\Ciccio\AppData\Local\Temp\ccXVDL4Z.ltrans5.ltrans.o
                                                  C:\Users\Ciccio\AppData\Local\Temp\ccXVDL4Z.ltrans4.ltrans.o
queue_notempty.lto_priv.371                       C:\Users\Ciccio\AppData\Local\Temp\ccXVDL4Z.ltrans10.ltrans.o
                                                  C:\Users\Ciccio\AppData\Local\Temp\ccXVDL4Z.ltrans9.ltrans.o
queue_prio_insert.lto_priv.369                    C:\Users\Ciccio\AppData\Local\Temp\ccXVDL4Z.ltrans10.ltrans.o
                                                  C:\Users\Ciccio\AppData\Local\Temp\ccXVDL4Z.ltrans9.ltrans.o
queues1_execute.lto_priv.54                       C:\Users\Ciccio\AppData\Local\Temp\ccXVDL4Z.ltrans2.ltrans.o
                                                  C:\Users\Ciccio\AppData\Local\Temp\ccXVDL4Z.ltrans0.ltrans.o
queues1_setup.lto_priv.53                         C:\Users\Ciccio\AppData\Local\Temp\ccXVDL4Z.ltrans2.ltrans.o
                                                  C:\Users\Ciccio\AppData\Local\Temp\ccXVDL4Z.ltrans0.ltrans.o
queues2_execute.lto_priv.52                       C:\Users\Ciccio\AppData\Local\Temp\ccXVDL4Z.ltrans1.ltrans.o
                                                  C:\Users\Ciccio\AppData\Local\Temp\ccXVDL4Z.ltrans0.ltrans.o
queues2_setup.lto_priv.51                         C:\Users\Ciccio\AppData\Local\Temp\ccXVDL4Z.ltrans1.ltrans.o
                                                  C:\Users\Ciccio\AppData\Local\Temp\ccXVDL4Z.ltrans0.ltrans.o
ram_areas.lto_priv.460                            C:\Users\Ciccio\AppData\Local\Temp\ccXVDL4Z.ltrans0.ltrans.o
                                                  C:\Users\Ciccio\AppData\Local\Temp\ccXVDL4Z.ltrans11.ltrans.o
read.lto_priv.104                                 C:\Users\Ciccio\AppData\Local\Temp\ccXVDL4Z.ltrans7.ltrans.o
                                                  C:\Users\Ciccio\AppData\Local\Temp\ccXVDL4Z.ltrans0.ltrans.o
readreg                                           build/obj/main.o (symbol from plugin)
readt.lto_priv.108                                C:\Users\Ciccio\AppData\Local\Temp\ccXVDL4Z.ltrans7.ltrans.o
                                                  C:\Users\Ciccio\AppData\Local\Temp\ccXVDL4Z.ltrans0.ltrans.o
reset                                             build/obj/main.o (symbol from plugin)
sdGetWouldBlock                                   build/obj/serial.o (symbol from plugin)
sdIncomingDataI                                   C:\Users\Ciccio\AppData\Local\Temp\ccXVDL4Z.ltrans7.ltrans.o
                                                  build/obj/serial.o (symbol from plugin)
                                                  C:\Users\Ciccio\AppData\Local\Temp\ccXVDL4Z.ltrans5.ltrans.o
                                                  build/obj/serial_lld.o (symbol from plugin)
sdInit                                            C:\Users\Ciccio\AppData\Local\Temp\ccXVDL4Z.ltrans7.ltrans.o
                                                  build/obj/serial.o (symbol from plugin)
                                                  C:\Users\Ciccio\AppData\Local\Temp\ccXVDL4Z.ltrans8.ltrans.o
                                                  build/obj/hal.o (symbol from plugin)
sdObjectInit                                      C:\Users\Ciccio\AppData\Local\Temp\ccXVDL4Z.ltrans7.ltrans.o
                                                  build/obj/serial.o (symbol from plugin)
                                                  C:\Users\Ciccio\AppData\Local\Temp\ccXVDL4Z.ltrans5.ltrans.o
                                                  build/obj/serial_lld.o (symbol from plugin)
sdPutWouldBlock                                   build/obj/serial.o (symbol from plugin)
sdRequestDataI                                    build/obj/serial.o (symbol from plugin)
sdStart                                           C:\Users\Ciccio\AppData\Local\Temp\ccXVDL4Z.ltrans7.ltrans.o
                                                  build/obj/serial.o (symbol from plugin)
                                                  C:\Users\Ciccio\AppData\Local\Temp\ccXVDL4Z.ltrans0.ltrans.o
                                                  build/obj/main.o (symbol from plugin)
sdStop                                            build/obj/serial.o (symbol from plugin)
sd_lld_init                                       C:\Users\Ciccio\AppData\Local\Temp\ccXVDL4Z.ltrans5.ltrans.o
                                                  build/obj/serial_lld.o (symbol from plugin)
                                                  C:\Users\Ciccio\AppData\Local\Temp\ccXVDL4Z.ltrans7.ltrans.o
                                                  build/obj/serial.o (symbol from plugin)
sd_lld_start                                      C:\Users\Ciccio\AppData\Local\Temp\ccXVDL4Z.ltrans5.ltrans.o
                                                  build/obj/serial_lld.o (symbol from plugin)
                                                  C:\Users\Ciccio\AppData\Local\Temp\ccXVDL4Z.ltrans7.ltrans.o
                                                  build/obj/serial.o (symbol from plugin)
sd_lld_stop                                       C:\Users\Ciccio\AppData\Local\Temp\ccXVDL4Z.ltrans5.ltrans.o
                                                  build/obj/serial_lld.o (symbol from plugin)
                                                  C:\Users\Ciccio\AppData\Local\Temp\ccXVDL4Z.ltrans7.ltrans.o
                                                  build/obj/serial.o (symbol from plugin)
sem1.lto_priv.46                                  C:\Users\Ciccio\AppData\Local\Temp\ccXVDL4Z.ltrans0.ltrans.o
                                                  C:\Users\Ciccio\AppData\Local\Temp\ccXVDL4Z.ltrans5.ltrans.o
                                                  C:\Users\Ciccio\AppData\Local\Temp\ccXVDL4Z.ltrans4.ltrans.o
sem1.lto_priv.47                                  C:\Users\Ciccio\AppData\Local\Temp\ccXVDL4Z.ltrans0.ltrans.o
                                                  C:\Users\Ciccio\AppData\Local\Temp\ccXVDL4Z.ltrans1.ltrans.o
sem1_execute.lto_priv.98                          C:\Users\Ciccio\AppData\Local\Temp\ccXVDL4Z.ltrans4.ltrans.o
                                                  C:\Users\Ciccio\AppData\Local\Temp\ccXVDL4Z.ltrans0.ltrans.o
sem1_setup.lto_priv.97                            C:\Users\Ciccio\AppData\Local\Temp\ccXVDL4Z.ltrans5.ltrans.o
                                                  C:\Users\Ciccio\AppData\Local\Temp\ccXVDL4Z.ltrans0.ltrans.o
sem2_execute.lto_priv.96                          C:\Users\Ciccio\AppData\Local\Temp\ccXVDL4Z.ltrans4.ltrans.o
                                                  C:\Users\Ciccio\AppData\Local\Temp\ccXVDL4Z.ltrans0.ltrans.o
sem2_setup.lto_priv.95                            C:\Users\Ciccio\AppData\Local\Temp\ccXVDL4Z.ltrans4.ltrans.o
                                                  C:\Users\Ciccio\AppData\Local\Temp\ccXVDL4Z.ltrans0.ltrans.o
sem3_execute.lto_priv.94                          C:\Users\Ciccio\AppData\Local\Temp\ccXVDL4Z.ltrans4.ltrans.o
                                                  C:\Users\Ciccio\AppData\Local\Temp\ccXVDL4Z.ltrans0.ltrans.o
sem3_setup.lto_priv.93                            C:\Users\Ciccio\AppData\Local\Temp\ccXVDL4Z.ltrans4.ltrans.o
                                                  C:\Users\Ciccio\AppData\Local\Temp\ccXVDL4Z.ltrans0.ltrans.o
sem4_execute.lto_priv.92                          C:\Users\Ciccio\AppData\Local\Temp\ccXVDL4Z.ltrans4.ltrans.o
                                                  C:\Users\Ciccio\AppData\Local\Temp\ccXVDL4Z.ltrans0.ltrans.o
setFreq                                           build/obj/main.o (symbol from plugin)
setPWM                                            build/obj/main.o (symbol from plugin)
set_error.lto_priv.247                            C:\Users\Ciccio\AppData\Local\Temp\ccXVDL4Z.ltrans6.ltrans.o
                                                  C:\Users\Ciccio\AppData\Local\Temp\ccXVDL4Z.ltrans5.ltrans.o
stGetAlarm                                        build/obj/st.o (symbol from plugin)
stInit                                            build/obj/st.o (symbol from plugin)
                                                  build/obj/hal.o (symbol from plugin)
stSetAlarm                                        C:\Users\Ciccio\AppData\Local\Temp\ccXVDL4Z.ltrans8.ltrans.o
                                                  build/obj/st.o (symbol from plugin)
                                                  C:\Users\Ciccio\AppData\Local\Temp\ccXVDL4Z.ltrans11.ltrans.o
                                                  build/obj/chvt.o (symbol from plugin)
                                                  build/obj/chsys.o (symbol from plugin)
stStartAlarm                                      C:\Users\Ciccio\AppData\Local\Temp\ccXVDL4Z.ltrans8.ltrans.o
                                                  build/obj/st.o (symbol from plugin)
                                                  C:\Users\Ciccio\AppData\Local\Temp\ccXVDL4Z.ltrans11.ltrans.o
                                                  build/obj/chvt.o (symbol from plugin)
stStopAlarm                                       C:\Users\Ciccio\AppData\Local\Temp\ccXVDL4Z.ltrans8.ltrans.o
                                                  build/obj/st.o (symbol from plugin)
                                                  C:\Users\Ciccio\AppData\Local\Temp\ccXVDL4Z.ltrans11.ltrans.o
                                                  build/obj/chvt.o (symbol from plugin)
                                                  build/obj/chsys.o (symbol from plugin)
st_lld_init                                       C:\Users\Ciccio\AppData\Local\Temp\ccXVDL4Z.ltrans6.ltrans.o
                                                  build/obj/st_lld.o (symbol from plugin)
                                                  C:\Users\Ciccio\AppData\Local\Temp\ccXVDL4Z.ltrans8.ltrans.o
                                                  build/obj/st.o (symbol from plugin)
stm32_clock_init                                  C:\Users\Ciccio\AppData\Local\Temp\ccXVDL4Z.ltrans7.ltrans.o
                                                  build/obj/hal_lld.o (symbol from plugin)
                                                  C:\Users\Ciccio\AppData\Local\Temp\ccXVDL4Z.ltrans5.ltrans.o
                                                  build/obj/board.o (symbol from plugin)
strtol                                            c:/chibistudio/tools/gnu tools arm embedded/4.9 2015q3/bin/../lib/gcc/arm-none-eabi/4.9.3/../../../../arm-none-eabi/lib/armv7e-m\libg.a(lib_a-strtol.o)
                                                  c:/chibistudio/tools/gnu tools arm embedded/4.9 2015q3/bin/../lib/gcc/arm-none-eabi/4.9.3/../../../../arm-none-eabi/lib/armv7e-m\libg.a(lib_a-atoi.o)
sys1_execute.lto_priv.50                          C:\Users\Ciccio\AppData\Local\Temp\ccXVDL4Z.ltrans1.ltrans.o
                                                  C:\Users\Ciccio\AppData\Local\Temp\ccXVDL4Z.ltrans0.ltrans.o
sys2_execute.lto_priv.49                          C:\Users\Ciccio\AppData\Local\Temp\ccXVDL4Z.ltrans1.ltrans.o
                                                  C:\Users\Ciccio\AppData\Local\Temp\ccXVDL4Z.ltrans0.ltrans.o
sys3_execute.lto_priv.48                          C:\Users\Ciccio\AppData\Local\Temp\ccXVDL4Z.ltrans1.ltrans.o
                                                  C:\Users\Ciccio\AppData\Local\Temp\ccXVDL4Z.ltrans0.ltrans.o
test                                              C:\Users\Ciccio\AppData\Local\Temp\ccXVDL4Z.ltrans0.ltrans.o
                                                  build/obj/test.o (symbol from plugin)
                                                  C:\Users\Ciccio\AppData\Local\Temp\ccXVDL4Z.ltrans3.ltrans.o
                                                  C:\Users\Ciccio\AppData\Local\Temp\ccXVDL4Z.ltrans2.ltrans.o
                                                  build/obj/testqueues.o (symbol from plugin)
                                                  build/obj/testdyn.o (symbol from plugin)
                                                  build/obj/testheap.o (symbol from plugin)
                                                  build/obj/testmbox.o (symbol from plugin)
test_emit_token                                   C:\Users\Ciccio\AppData\Local\Temp\ccXVDL4Z.ltrans5.ltrans.o
                                                  build/obj/test.o (symbol from plugin)
                                                  C:\Users\Ciccio\AppData\Local\Temp\ccXVDL4Z.ltrans4.ltrans.o
                                                  C:\Users\Ciccio\AppData\Local\Temp\ccXVDL4Z.ltrans3.ltrans.o
                                                  C:\Users\Ciccio\AppData\Local\Temp\ccXVDL4Z.ltrans2.ltrans.o
                                                  C:\Users\Ciccio\AppData\Local\Temp\ccXVDL4Z.ltrans1.ltrans.o
                                                  build/obj/testqueues.o (symbol from plugin)
                                                  build/obj/testdyn.o (symbol from plugin)
                                                  build/obj/testevt.o (symbol from plugin)
                                                  build/obj/testmbox.o (symbol from plugin)
                                                  build/obj/testmsg.o (symbol from plugin)
                                                  build/obj/testmtx.o (symbol from plugin)
                                                  build/obj/testsem.o (symbol from plugin)
                                                  build/obj/testthd.o (symbol from plugin)
test_global_fail                                  C:\Users\Ciccio\AppData\Local\Temp\ccXVDL4Z.ltrans0.ltrans.o
                                                  build/obj/test.o (symbol from plugin)
                                                  C:\Users\Ciccio\AppData\Local\Temp\ccXVDL4Z.ltrans5.ltrans.o
test_heap.lto_priv.171                            C:\Users\Ciccio\AppData\Local\Temp\ccXVDL4Z.ltrans0.ltrans.o
                                                  C:\Users\Ciccio\AppData\Local\Temp\ccXVDL4Z.ltrans2.ltrans.o
test_print                                        C:\Users\Ciccio\AppData\Local\Temp\ccXVDL4Z.ltrans5.ltrans.o
                                                  build/obj/test.o (symbol from plugin)
                                                  C:\Users\Ciccio\AppData\Local\Temp\ccXVDL4Z.ltrans1.ltrans.o
                                                  C:\Users\Ciccio\AppData\Local\Temp\ccXVDL4Z.ltrans0.ltrans.o
                                                  build/obj/testbmk.o (symbol from plugin)
test_println                                      C:\Users\Ciccio\AppData\Local\Temp\ccXVDL4Z.ltrans5.ltrans.o
                                                  build/obj/test.o (symbol from plugin)
                                                  C:\Users\Ciccio\AppData\Local\Temp\ccXVDL4Z.ltrans1.ltrans.o
                                                  C:\Users\Ciccio\AppData\Local\Temp\ccXVDL4Z.ltrans0.ltrans.o
                                                  build/obj/testbmk.o (symbol from plugin)
test_printn                                       C:\Users\Ciccio\AppData\Local\Temp\ccXVDL4Z.ltrans5.ltrans.o
                                                  build/obj/test.o (symbol from plugin)
                                                  C:\Users\Ciccio\AppData\Local\Temp\ccXVDL4Z.ltrans1.ltrans.o
                                                  C:\Users\Ciccio\AppData\Local\Temp\ccXVDL4Z.ltrans0.ltrans.o
                                                  build/obj/testbmk.o (symbol from plugin)
test_start_timer                                  C:\Users\Ciccio\AppData\Local\Temp\ccXVDL4Z.ltrans5.ltrans.o
                                                  build/obj/test.o (symbol from plugin)
                                                  C:\Users\Ciccio\AppData\Local\Temp\ccXVDL4Z.ltrans1.ltrans.o
                                                  build/obj/testbmk.o (symbol from plugin)
test_terminate_threads                            C:\Users\Ciccio\AppData\Local\Temp\ccXVDL4Z.ltrans5.ltrans.o
                                                  build/obj/test.o (symbol from plugin)
                                                  C:\Users\Ciccio\AppData\Local\Temp\ccXVDL4Z.ltrans1.ltrans.o
                                                  build/obj/testbmk.o (symbol from plugin)
test_timer_done                                   C:\Users\Ciccio\AppData\Local\Temp\ccXVDL4Z.ltrans0.ltrans.o
                                                  build/obj/test.o (symbol from plugin)
                                                  C:\Users\Ciccio\AppData\Local\Temp\ccXVDL4Z.ltrans5.ltrans.o
                                                  C:\Users\Ciccio\AppData\Local\Temp\ccXVDL4Z.ltrans1.ltrans.o
                                                  build/obj/testbmk.o (symbol from plugin)
test_wait_threads                                 C:\Users\Ciccio\AppData\Local\Temp\ccXVDL4Z.ltrans5.ltrans.o
                                                  build/obj/test.o (symbol from plugin)
                                                  C:\Users\Ciccio\AppData\Local\Temp\ccXVDL4Z.ltrans4.ltrans.o
                                                  C:\Users\Ciccio\AppData\Local\Temp\ccXVDL4Z.ltrans3.ltrans.o
                                                  C:\Users\Ciccio\AppData\Local\Temp\ccXVDL4Z.ltrans2.ltrans.o
                                                  C:\Users\Ciccio\AppData\Local\Temp\ccXVDL4Z.ltrans1.ltrans.o
                                                  build/obj/testbmk.o (symbol from plugin)
                                                  build/obj/testqueues.o (symbol from plugin)
                                                  build/obj/testdyn.o (symbol from plugin)
                                                  build/obj/testevt.o (symbol from plugin)
                                                  build/obj/testmtx.o (symbol from plugin)
                                                  build/obj/testsem.o (symbol from plugin)
                                                  build/obj/testthd.o (symbol from plugin)
test_wait_tick                                    C:\Users\Ciccio\AppData\Local\Temp\ccXVDL4Z.ltrans5.ltrans.o
                                                  build/obj/test.o (symbol from plugin)
                                                  C:\Users\Ciccio\AppData\Local\Temp\ccXVDL4Z.ltrans4.ltrans.o
                                                  C:\Users\Ciccio\AppData\Local\Temp\ccXVDL4Z.ltrans3.ltrans.o
                                                  C:\Users\Ciccio\AppData\Local\Temp\ccXVDL4Z.ltrans1.ltrans.o
                                                  build/obj/testbmk.o (symbol from plugin)
                                                  build/obj/testevt.o (symbol from plugin)
                                                  build/obj/testsem.o (symbol from plugin)
                                                  build/obj/testthd.o (symbol from plugin)
testbmk1                                          build/obj/testbmk.o (symbol from plugin)
testbmk10                                         build/obj/testbmk.o (symbol from plugin)
testbmk11                                         build/obj/testbmk.o (symbol from plugin)
testbmk12                                         build/obj/testbmk.o (symbol from plugin)
testbmk13                                         build/obj/testbmk.o (symbol from plugin)
testbmk2                                          build/obj/testbmk.o (symbol from plugin)
testbmk3                                          build/obj/testbmk.o (symbol from plugin)
testbmk4                                          build/obj/testbmk.o (symbol from plugin)
testbmk5                                          build/obj/testbmk.o (symbol from plugin)
testbmk6                                          build/obj/testbmk.o (symbol from plugin)
testbmk7                                          build/obj/testbmk.o (symbol from plugin)
testbmk8                                          build/obj/testbmk.o (symbol from plugin)
testbmk9                                          build/obj/testbmk.o (symbol from plugin)
testdyn1                                          build/obj/testdyn.o (symbol from plugin)
testdyn2                                          build/obj/testdyn.o (symbol from plugin)
testdyn3                                          build/obj/testdyn.o (symbol from plugin)
testevt1                                          build/obj/testevt.o (symbol from plugin)
testevt2                                          build/obj/testevt.o (symbol from plugin)
testevt3                                          build/obj/testevt.o (symbol from plugin)
testheap1                                         build/obj/testheap.o (symbol from plugin)
testmbox1                                         build/obj/testmbox.o (symbol from plugin)
testmsg1                                          build/obj/testmsg.o (symbol from plugin)
testmtx1                                          build/obj/testmtx.o (symbol from plugin)
testmtx4                                          build/obj/testmtx.o (symbol from plugin)
testmtx5                                          build/obj/testmtx.o (symbol from plugin)
testmtx6                                          build/obj/testmtx.o (symbol from plugin)
testmtx7                                          build/obj/testmtx.o (symbol from plugin)
testmtx8                                          build/obj/testmtx.o (symbol from plugin)
testpools1                                        build/obj/testpools.o (symbol from plugin)
testqueues1                                       build/obj/testqueues.o (symbol from plugin)
testqueues2                                       build/obj/testqueues.o (symbol from plugin)
testsem1                                          build/obj/testsem.o (symbol from plugin)
testsem2                                          build/obj/testsem.o (symbol from plugin)
testsem3                                          build/obj/testsem.o (symbol from plugin)
testsem4                                          build/obj/testsem.o (symbol from plugin)
testsys1                                          build/obj/testsys.o (symbol from plugin)
testsys2                                          build/obj/testsys.o (symbol from plugin)
testsys3                                          build/obj/testsys.o (symbol from plugin)
testthd1                                          build/obj/testthd.o (symbol from plugin)
testthd2                                          build/obj/testthd.o (symbol from plugin)
testthd3                                          build/obj/testthd.o (symbol from plugin)
testthd4                                          build/obj/testthd.o (symbol from plugin)
thReader                                          build/obj/main.o (symbol from plugin)
thd1_execute.lto_priv.102                         C:\Users\Ciccio\AppData\Local\Temp\ccXVDL4Z.ltrans5.ltrans.o
                                                  C:\Users\Ciccio\AppData\Local\Temp\ccXVDL4Z.ltrans0.ltrans.o
thd2_execute.lto_priv.101                         C:\Users\Ciccio\AppData\Local\Temp\ccXVDL4Z.ltrans5.ltrans.o
                                                  C:\Users\Ciccio\AppData\Local\Temp\ccXVDL4Z.ltrans0.ltrans.o
thd3_execute.lto_priv.100                         C:\Users\Ciccio\AppData\Local\Temp\ccXVDL4Z.ltrans5.ltrans.o
                                                  C:\Users\Ciccio\AppData\Local\Temp\ccXVDL4Z.ltrans0.ltrans.o
thd4_execute.lto_priv.99                          C:\Users\Ciccio\AppData\Local\Temp\ccXVDL4Z.ltrans5.ltrans.o
                                                  C:\Users\Ciccio\AppData\Local\Temp\ccXVDL4Z.ltrans0.ltrans.o
thread1.lto_priv.196                              C:\Users\Ciccio\AppData\Local\Temp\ccXVDL4Z.ltrans5.ltrans.o
                                                  C:\Users\Ciccio\AppData\Local\Temp\ccXVDL4Z.ltrans4.ltrans.o
threads                                           C:\Users\Ciccio\AppData\Local\Temp\ccXVDL4Z.ltrans0.ltrans.o
                                                  build/obj/test.o (symbol from plugin)
                                                  C:\Users\Ciccio\AppData\Local\Temp\ccXVDL4Z.ltrans5.ltrans.o
                                                  C:\Users\Ciccio\AppData\Local\Temp\ccXVDL4Z.ltrans4.ltrans.o
                                                  C:\Users\Ciccio\AppData\Local\Temp\ccXVDL4Z.ltrans3.ltrans.o
                                                  C:\Users\Ciccio\AppData\Local\Temp\ccXVDL4Z.ltrans2.ltrans.o
                                                  C:\Users\Ciccio\AppData\Local\Temp\ccXVDL4Z.ltrans1.ltrans.o
                                                  build/obj/testbmk.o (symbol from plugin)
                                                  build/obj/testqueues.o (symbol from plugin)
                                                  build/obj/testdyn.o (symbol from plugin)
                                                  build/obj/testevt.o (symbol from plugin)
                                                  build/obj/testmsg.o (symbol from plugin)
                                                  build/obj/testmtx.o (symbol from plugin)
                                                  build/obj/testsem.o (symbol from plugin)
                                                  build/obj/testthd.o (symbol from plugin)
tm_stop.lto_priv.405                              C:\Users\Ciccio\AppData\Local\Temp\ccXVDL4Z.ltrans11.ltrans.o
                                                  C:\Users\Ciccio\AppData\Local\Temp\ccXVDL4Z.ltrans10.ltrans.o
tokens_buffer.lto_priv.238                        C:\Users\Ciccio\AppData\Local\Temp\ccXVDL4Z.ltrans0.ltrans.o
                                                  C:\Users\Ciccio\AppData\Local\Temp\ccXVDL4Z.ltrans5.ltrans.o
tokp.lto_priv.239                                 C:\Users\Ciccio\AppData\Local\Temp\ccXVDL4Z.ltrans0.ltrans.o
                                                  C:\Users\Ciccio\AppData\Local\Temp\ccXVDL4Z.ltrans5.ltrans.o
trasformToPWM                                     build/obj/main.o (symbol from plugin)
usart_deinit.lto_priv.241                         C:\Users\Ciccio\AppData\Local\Temp\ccXVDL4Z.ltrans6.ltrans.o
                                                  C:\Users\Ciccio\AppData\Local\Temp\ccXVDL4Z.ltrans5.ltrans.o
usart_init.lto_priv.242                           C:\Users\Ciccio\AppData\Local\Temp\ccXVDL4Z.ltrans6.ltrans.o
                                                  C:\Users\Ciccio\AppData\Local\Temp\ccXVDL4Z.ltrans5.ltrans.o
vmt.lto_priv.0                                    C:\Users\Ciccio\AppData\Local\Temp\ccXVDL4Z.ltrans0.ltrans.o
                                                  C:\Users\Ciccio\AppData\Local\Temp\ccXVDL4Z.ltrans7.ltrans.o
vt.lto_priv.237                                   C:\Users\Ciccio\AppData\Local\Temp\ccXVDL4Z.ltrans0.ltrans.o
                                                  C:\Users\Ciccio\AppData\Local\Temp\ccXVDL4Z.ltrans5.ltrans.o
vt1.6591.lto_priv.144                             C:\Users\Ciccio\AppData\Local\Temp\ccXVDL4Z.ltrans0.ltrans.o
                                                  C:\Users\Ciccio\AppData\Local\Temp\ccXVDL4Z.ltrans1.ltrans.o
vt2.6592.lto_priv.145                             C:\Users\Ciccio\AppData\Local\Temp\ccXVDL4Z.ltrans0.ltrans.o
                                                  C:\Users\Ciccio\AppData\Local\Temp\ccXVDL4Z.ltrans1.ltrans.o
wa                                                C:\Users\Ciccio\AppData\Local\Temp\ccXVDL4Z.ltrans0.ltrans.o
                                                  build/obj/test.o (symbol from plugin)
                                                  C:\Users\Ciccio\AppData\Local\Temp\ccXVDL4Z.ltrans5.ltrans.o
                                                  C:\Users\Ciccio\AppData\Local\Temp\ccXVDL4Z.ltrans4.ltrans.o
                                                  C:\Users\Ciccio\AppData\Local\Temp\ccXVDL4Z.ltrans3.ltrans.o
                                                  C:\Users\Ciccio\AppData\Local\Temp\ccXVDL4Z.ltrans2.ltrans.o
                                                  C:\Users\Ciccio\AppData\Local\Temp\ccXVDL4Z.ltrans1.ltrans.o
                                                  build/obj/testbmk.o (symbol from plugin)
                                                  build/obj/testqueues.o (symbol from plugin)
                                                  build/obj/testdyn.o (symbol from plugin)
                                                  build/obj/testpools.o (symbol from plugin)
                                                  build/obj/testevt.o (symbol from plugin)
                                                  build/obj/testmsg.o (symbol from plugin)
                                                  build/obj/testmtx.o (symbol from plugin)
                                                  build/obj/testsem.o (symbol from plugin)
                                                  build/obj/testthd.o (symbol from plugin)
write.lto_priv.103                                C:\Users\Ciccio\AppData\Local\Temp\ccXVDL4Z.ltrans7.ltrans.o
                                                  C:\Users\Ciccio\AppData\Local\Temp\ccXVDL4Z.ltrans0.ltrans.o
writereg                                          build/obj/main.o (symbol from plugin)
writet.lto_priv.107                               C:\Users\Ciccio\AppData\Local\Temp\ccXVDL4Z.ltrans7.ltrans.o
                                                  C:\Users\Ciccio\AppData\Local\Temp\ccXVDL4Z.ltrans0.ltrans.o
